"File: app.c         Assembler  Version HGASM0202      Page 1


   1  0000              ; Generated by holtek-gcc v3.19, Mon Oct 17 12:40:04 2022
   2  0000              ; 
   3  0000              ; Configuration:
   4  0000              ;       with long instruction
   5  0000              ;       Single ROM, Multi-RAM
   6  0000              ;       bits_per_rom_unit:16
   7  0000              ;       with mp1
   8  0000              ;       with tbhp, address(0x9)
   9  0000              ;          Use tabrd-const
  10  0000              ;       
  11  0000              ; SFR address of long-instruction arch:
  12  0000              ;    mp0 = -1,1,0
  13  0000              ;    mp1 = 4,3,2
  14  0000              ;    mp2 = 14,13,12
  15  0000              ;    tbp = 9,7,8
  16  0000              ;    acc = 5
  17  0000              ;    pcl = 6
  18  0000              ;    status = 10
  19  0000              ;    bp = 11
  20  0000              ;    intc = 17
  21  0000              ;       
  22  0000              ;       
  23  0000              ; use 'tabrdc' instead of 'tabrd'
  24  0000              ;       
  25  0000              
  26  0000              #pragma translator "holtek-gcc 4.6.4" "3.19" "build 20130711"
  27  0000              ; Rebuild 718
  28  0000              
  29  0000              ir equ [2]
  30  0000              mp equ [3]
  31  0000              sbp equ [4]
  32  0000              acc equ [5]
  33  0000              bp equ [11]
  34  0000              tblp equ [7]
  35  0000              tbhp equ [9]
  36  0000              status equ [10]
  37  0000              c equ [10].0
  38  0000              ac equ [10].1
  39  0000              z equ [10].2
  40  0000              ov equ [10].3
  41  0000              cz equ [10].6
  42  0000              sc equ [10].7
  43  0000              intc equ [17]
  44  0000              
  45  0000              extern ra:byte
  46  0000              extern rb:byte
  47  0000              extern rc:byte
  48  0000              extern rd:byte
  49  0000              extern re:byte
  50  0000              extern rf:byte
  51  0000              extern rg:byte
  52  0000              extern rh:byte
  53  0000              extern _Crom2Prom:near
  54  0000              extern _Crom2PromNext:near
  55  0000              
  56  0000              RAMBANK 0 @BITDATASEC, @BITDATASEC1
  57  0000              @HCCINIT	.section 'data'
  58  0000              @HCCINIT0	.section 'data'
  59  0000              @BITDATASEC	 .section 'data'
"File: app.ASM       Assembler  Version HGASM0202      Page 2

  60  0000              @BITDATASEC1	 .section 'data'
  61  0000              
  62  0000              #pragma debug scope 1 1
  63  0000              	extern __DELAY3:near
  64  0000              	extern __DELAYX3:near
  65  0000              	extern __DELAYX6:near
  66  0000              	extern __DELAYY5:near
  67  0000              	extern __DELAYY3:near
  68  0000              	extern _builtin_holtek_delay_2:byte
  69  0000              public _delay
  70  0000              #pragma debug scope 2 1

  18  0000              #line 18 "c:\users\user\documents\htk_project\qbell_master_mb_v1_2_f10\app.c"
  18  0000              _delay .section 'code'
  18  0000              _delay proc
  18  0000              public _delay_2
  18  0000  0002[           local _delay_2 db 2 dup(?)	; 2,0
            00
            ]
  18  0002              #pragma debug variable 10 2 _delay_2+0 "time"
  22  0002              #line 22 "c:\users\user\documents\htk_project\qbell_master_mb_v1_2_f10\app.c"
  22  0000  1F00     E  	clr rb
  22  0001  1F00     E  	clr rc
  22  0002              _L2:
  22  0002              #line 22 "c:\users\user\documents\htk_project\qbell_master_mb_v1_2_f10\app.c"
  22  0002  0700     E  	mov a,rb
  22  0003  0200     R  	sub a,_delay_2[0]
  22  0004  0700     E  	mov a,rc
  22  0005  1200     R  	sbc a,_delay_2[1]
  22  0006  3F0A        	sz cz
  22  0007  2800     R  	jmp _L1
  22  0008  0F05        	mov a,5
  22  0009  0080     E  	mov ra,a
  22  000A              _L7:
  18  000A              #line 18 "c:\users\user\documents\htk_project\qbell_master_mb_v1_2_f10\app.c"
  18  000A  0F66        	mov a,102
  18  000B  0080     E  	mov rd,a
  18  000C              _L5:
  27  000C              #line 27 "c:\users\user\documents\htk_project\qbell_master_mb_v1_2_f10\app.c"
  27  000C              ;# 27 "c:\users\user\documents\htk_project\qbell_master_mb_v1_2_f10\app.c" 1
  27  000C  0000        	nop
  27  000D  1780     E  	sdz rd
  27  000E  2800     R  	jmp _L5
  27  000F  1780     E  	sdz ra
  27  0010  2800     R  	jmp _L7
  22  0011              #line 22 "c:\users\user\documents\htk_project\qbell_master_mb_v1_2_f10\app.c"
  22  0011  1480     E  	inc rb
  22  0012  3D0A        	sz z
  22  0013  1480     E  	inc rc
  22  0014  2800     R  	jmp _L2
  22  0015              _L1:
  22  0015  0003        	ret
  22  0016              _delay endp
  22  0016              #line 22 "c:\users\user\documents\htk_project\qbell_master_mb_v1_2_f10\app.c"
  22  0016              #pragma debug scope 1 1
  22  0016              ___pb equ [37]
  22  0000              @crom	.section 'crom'
  22  0000              _LC0:
  22  0000              	db 069h,06eh,020h,036h,030h,020h,06dh,06fh,064h,065h
  22  0005              	db 0ah,00h
"File: app.c         Assembler  Version HGASM0202      Page 3

  22  0006              @crom	.section 'crom'
  22  0006              _LC1:
  22  0006              	db 069h,06eh,020h,039h,030h,020h,06dh,06fh,064h,065h
  22  000B              	db 0ah,00h
  22  000C              @crom	.section 'crom'
  22  000C              _LC2:
  22  000C              	db 069h,06eh,020h,033h,030h,020h,06dh,06fh,064h,065h
  22  0011              	db 0ah,00h
  22  0012              public _sw0_status_check
  22  0012              #pragma debug scope 3 1
  50  0012              #line 50 "c:\users\user\documents\htk_project\qbell_master_mb_v1_2_f10\app.c"
  50  0000              _sw0_status_check .section 'code'
  50  0000              _sw0_status_check proc
  51  0000              #line 51 "c:\users\user\documents\htk_project\qbell_master_mb_v1_2_f10\app.c"
  51  0000  3825        	snz [37].0
  51  0001  2800     R  	jmp _L10
  51  0002              #line 51 "c:\users\user\documents\htk_project\qbell_master_mb_v1_2_f10\app.c"
  51  0002  38A5        	snz [37].1
  51  0003  2800     R  	jmp _L10
  53  0004              #line 53 "c:\users\user\documents\htk_project\qbell_master_mb_v1_2_f10\app.c"
  53  0004  0F00     R  	mov a,low offset _LC0
  53  0005  0080     E  	mov _uart_printf_2[0],a
  53  0006  0F00     R  	mov a,high offset _LC0
  53  0007  0080     E  	mov _uart_printf_2[1],a
  53  0008  2000     E  	call _uart_printf
  54  0009              #line 54 "c:\users\user\documents\htk_project\qbell_master_mb_v1_2_f10\app.c"
  54  0009  0F0A        	mov a,10
  54  000A  0080     E  	mov _intF[3],a
  54  000B  2800     R  	jmp _L11
  54  000C              _L10:
  56  000C              #line 56 "c:\users\user\documents\htk_project\qbell_master_mb_v1_2_f10\app.c"
  56  000C  3825        	snz [37].0
  56  000D  2800     R  	jmp _L12
  56  000E  3CA5        	sz [37].1
  56  000F  2800     R  	jmp _L12
  58  0010              #line 58 "c:\users\user\documents\htk_project\qbell_master_mb_v1_2_f10\app.c"
  58  0010  0F00     R  	mov a,low offset _LC1
  58  0011  0080     E  	mov _uart_printf_2[0],a
  58  0012  0F00     R  	mov a,high offset _LC1
  58  0013  0080     E  	mov _uart_printf_2[1],a
  58  0014  2000     E  	call _uart_printf
  59  0015              #line 59 "c:\users\user\documents\htk_project\qbell_master_mb_v1_2_f10\app.c"
  59  0015  0F0F        	mov a,15
  59  0016  0080     E  	mov _intF[3],a
  59  0017  2800     R  	jmp _L11
  59  0018              _L12:
  61  0018              #line 61 "c:\users\user\documents\htk_project\qbell_master_mb_v1_2_f10\app.c"
  61  0018  3C25        	sz [37].0
  61  0019  2800     R  	jmp _L13
  61  001A  0725        	mov a,[37]
  61  001B  0080     E  	mov ra,a
  61  001C              _L13:
  63  001C              #line 63 "c:\users\user\documents\htk_project\qbell_master_mb_v1_2_f10\app.c"
  63  001C  0F00     R  	mov a,low offset _LC2
  63  001D  0080     E  	mov _uart_printf_2[0],a
  63  001E  0F00     R  	mov a,high offset _LC2
  63  001F  0080     E  	mov _uart_printf_2[1],a
  63  0020  2000     E  	call _uart_printf
  64  0021              #line 64 "c:\users\user\documents\htk_project\qbell_master_mb_v1_2_f10\app.c"
  64  0021  0F05        	mov a,5
"File: app.c         Assembler  Version HGASM0202      Page 4

  64  0022  0080     E  	mov _intF[3],a
  64  0023              _L11:
  71  0023              #line 71 "c:\users\user\documents\htk_project\qbell_master_mb_v1_2_f10\app.c"
  71  0023  0FE8        	mov a,-24
  71  0024  0080     R  	mov _delay_2[0],a
  71  0025  0F03        	mov a,3
  71  0026  0080     R  	mov _delay_2[1],a
  71  0027  2000     R  	call _delay
  71  0028  0003        	ret
  71  0029              _sw0_status_check endp
  71  0029              #line 71 "c:\users\user\documents\htk_project\qbell_master_mb_v1_2_f10\app.c"
  71  0029              #pragma debug scope 1 1
  71  0029              ___wdtc equ [26]
  71  0029              public _sysInit
  71  0029              #pragma debug scope 4 1
  85  0029              #line 85 "c:\users\user\documents\htk_project\qbell_master_mb_v1_2_f10\app.c"
  85  0000              _sysInit .section 'code'
  85  0000              _sysInit proc
  86  0000              #line 86 "c:\users\user\documents\htk_project\qbell_master_mb_v1_2_f10\app.c"
  86  0000  0FA8        	mov a,168
  86  0001  009A        	mov [26],a
  90  0002              #line 90 "c:\users\user\documents\htk_project\qbell_master_mb_v1_2_f10\app.c"
  90  0002  0F0A        	mov a,10
  90  0003  0080     R  	mov _delay_2[0],a
  90  0004  1F00     R  	clr _delay_2[1]
  90  0005  2000     R  	call _delay
  91  0006              #line 91 "c:\users\user\documents\htk_project\qbell_master_mb_v1_2_f10\app.c"
  91  0006  2000     E  	call _adc_init
  92  0007              #line 92 "c:\users\user\documents\htk_project\qbell_master_mb_v1_2_f10\app.c"
  92  0007  2000     E  	call _IIC_Init
  93  0008              #line 93 "c:\users\user\documents\htk_project\qbell_master_mb_v1_2_f10\app.c"
  93  0008  2000     E  	call _ktd_en
  94  0009              #line 94 "c:\users\user\documents\htk_project\qbell_master_mb_v1_2_f10\app.c"
  94  0009  2000     E  	call _ktd_clear
  95  000A              #line 95 "c:\users\user\documents\htk_project\qbell_master_mb_v1_2_f10\app.c"
  95  000A  0F0A        	mov a,10
  95  000B  0080     R  	mov _delay_2[0],a
  95  000C  1F00     R  	clr _delay_2[1]
  95  000D  2000     R  	call _delay
  96  000E              #line 96 "c:\users\user\documents\htk_project\qbell_master_mb_v1_2_f10\app.c"
  96  000E  2000     E  	call _int_init
  97  000F              #line 97 "c:\users\user\documents\htk_project\qbell_master_mb_v1_2_f10\app.c"
  97  000F  0F0A        	mov a,10
  97  0010  0080     R  	mov _delay_2[0],a
  97  0011  1F00     R  	clr _delay_2[1]
  97  0012  2000     R  	call _delay
  98  0013              #line 98 "c:\users\user\documents\htk_project\qbell_master_mb_v1_2_f10\app.c"
  98  0013  2000     E  	call _RF_Init
  99  0014              #line 99 "c:\users\user\documents\htk_project\qbell_master_mb_v1_2_f10\app.c"
  99  0014  2000     E  	call _RF_Parameter_loading
 100  0015              #line 100 "c:\users\user\documents\htk_project\qbell_master_mb_v1_2_f10\app.c"
 100  0015  0FCD        	mov a,205
 100  0016  0080     E  	mov _SpiWriteRegCMD_2[0],a
 100  0017  0F07        	mov a,7
 100  0018  2000     E  	call _SpiWriteRegCMD
 101  0019              #line 101 "c:\users\user\documents\htk_project\qbell_master_mb_v1_2_f10\app.c"
 101  0019  0F05        	mov a,5
 101  001A  0080     E  	mov _BC3602_T[0],a
 103  001B              #line 103 "c:\users\user\documents\htk_project\qbell_master_mb_v1_2_f10\app.c"
 103  001B  0F0A        	mov a,10
"File: app.c         Assembler  Version HGASM0202      Page 5

 103  001C  0080     R  	mov _delay_2[0],a
 103  001D  1F00     R  	clr _delay_2[1]
 103  001E  2000     R  	call _delay
 105  001F              #line 105 "c:\users\user\documents\htk_project\qbell_master_mb_v1_2_f10\app.c"
 105  001F  2000     E  	call _ktd_clear
 106  0020              #line 106 "c:\users\user\documents\htk_project\qbell_master_mb_v1_2_f10\app.c"
 106  0020  0F0C        	mov a,12
 106  0021  0080     E  	mov _ktd_clockwise_ring_p1_2[5],a
 106  0022  0F01        	mov a,1
 106  0023  0080     E  	mov _ktd_clockwise_ring_p1_2[4],a
 106  0024  0F32        	mov a,50
 106  0025  0080     E  	mov _ktd_clockwise_ring_p1_2[2],a
 106  0026  1F00     E  	clr _ktd_clockwise_ring_p1_2[3]
 106  0027  1F00     E  	clr _ktd_clockwise_ring_p1_2[1]
 106  0028  0FC8        	mov a,200
 106  0029  0080     E  	mov _ktd_clockwise_ring_p1_2[0],a
 106  002A  0F00        	mov a,0
 106  002B  2000     E  	call _ktd_clockwise_ring_p1
 107  002C              #line 107 "c:\users\user\documents\htk_project\qbell_master_mb_v1_2_f10\app.c"
 107  002C  0F0C        	mov a,12
 107  002D  0080     E  	mov _ktd_anticlockwise_ring_p1_2[5],a
 107  002E  0F01        	mov a,1
 107  002F  0080     E  	mov _ktd_anticlockwise_ring_p1_2[4],a
 107  0030  0F32        	mov a,50
 107  0031  0080     E  	mov _ktd_anticlockwise_ring_p1_2[2],a
 107  0032  1F00     E  	clr _ktd_anticlockwise_ring_p1_2[3]
 107  0033  1F00     E  	clr _ktd_anticlockwise_ring_p1_2[1]
 107  0034  0FC8        	mov a,200
 107  0035  0080     E  	mov _ktd_anticlockwise_ring_p1_2[0],a
 107  0036  0F00        	mov a,0
 107  0037  2000     E  	call _ktd_anticlockwise_ring_p1
 108  0038              #line 108 "c:\users\user\documents\htk_project\qbell_master_mb_v1_2_f10\app.c"
 108  0038  0F0C        	mov a,12
 108  0039  0080     E  	mov _ktd_clockwise_ring_p1_2[5],a
 108  003A  0F01        	mov a,1
 108  003B  0080     E  	mov _ktd_clockwise_ring_p1_2[4],a
 108  003C  0F32        	mov a,50
 108  003D  0080     E  	mov _ktd_clockwise_ring_p1_2[2],a
 108  003E  1F00     E  	clr _ktd_clockwise_ring_p1_2[3]
 108  003F  0FC8        	mov a,200
 108  0040  0080     E  	mov _ktd_clockwise_ring_p1_2[1],a
 108  0041  1F00     E  	clr _ktd_clockwise_ring_p1_2[0]
 108  0042  0F00        	mov a,0
 108  0043  2000     E  	call _ktd_clockwise_ring_p1
 109  0044              #line 109 "c:\users\user\documents\htk_project\qbell_master_mb_v1_2_f10\app.c"
 109  0044  0F0C        	mov a,12
 109  0045  0080     E  	mov _ktd_anticlockwise_ring_p1_2[5],a
 109  0046  0F01        	mov a,1
 109  0047  0080     E  	mov _ktd_anticlockwise_ring_p1_2[4],a
 109  0048  0F32        	mov a,50
 109  0049  0080     E  	mov _ktd_anticlockwise_ring_p1_2[2],a
 109  004A  1F00     E  	clr _ktd_anticlockwise_ring_p1_2[3]
 109  004B  0FC8        	mov a,200
 109  004C  0080     E  	mov _ktd_anticlockwise_ring_p1_2[1],a
 109  004D  1F00     E  	clr _ktd_anticlockwise_ring_p1_2[0]
 109  004E  0F00        	mov a,0
 109  004F  2000     E  	call _ktd_anticlockwise_ring_p1
 110  0050              #line 110 "c:\users\user\documents\htk_project\qbell_master_mb_v1_2_f10\app.c"
 110  0050  0FE8        	mov a,-24
 110  0051  0080     R  	mov _delay_2[0],a
"File: app.c         Assembler  Version HGASM0202      Page 6

 110  0052  0F03        	mov a,3
 110  0053  0080     R  	mov _delay_2[1],a
 110  0054  2000     R  	call _delay
 111  0055              #line 111 "c:\users\user\documents\htk_project\qbell_master_mb_v1_2_f10\app.c"
 111  0055  2000     E  	call _ktd_clear
 111  0056  0003        	ret
 111  0057              _sysInit endp
 111  0057              #line 111 "c:\users\user\documents\htk_project\qbell_master_mb_v1_2_f10\app.c"
 111  0057              #pragma debug scope 1 1
 111  0012              @crom	.section 'crom'
 111  0012              _LC3:
 111  0012              	db 052h,065h,061h,064h,069h,06eh,067h,020h,044h,065h
 111  0017              	db 076h,069h,063h,065h,020h,041h,064h,064h,072h,065h
 111  001C              	db 073h,073h,020h,066h,072h,06fh,06dh,020h,045h,045h
 111  0021              	db 050h,052h,04fh,04dh,03ah,020h,00h
 111  0025              @crom	.section 'crom'
 111  0025              _LC4:
 111  0025              	db 020h,00h
 111  0026              @crom	.section 'crom'
 111  0026              _LC5:
 111  0026              	db 0ah,00h
 111  0027              @crom	.section 'crom'
 111  0027              _LC6:
 111  0027              	db 043h,068h,065h,063h,06bh,069h,06eh,067h,020h,050h
 111  002C              	db 061h,069h,072h,065h,064h,020h,053h,074h,061h,074h
 111  0031              	db 075h,073h,03ah,020h,00h
 111  0033              @crom	.section 'crom'
 111  0033              _LC7:
 111  0033              	db 044h,065h,076h,069h,063h,065h,020h,061h,06ch,072h
 111  0038              	db 065h,061h,064h,079h,020h,050h,061h,069h,072h,065h
 111  003D              	db 064h,020h,077h,069h,074h,068h,03ah,020h,00h
 111  0042              @crom	.section 'crom'
 111  0042              _LC8:
 111  0042              	db 044h,065h,076h,069h,063h,065h,020h,069h,073h,020h
 111  0047              	db 06eh,06fh,074h,020h,050h,061h,069h,072h,065h,064h
 111  004C              	db 020h,059h,065h,074h,0ah,00h
 111  004F              public _app_eeprom_check
 111  004F              #pragma debug scope 5 1
 115  004F              #line 115 "c:\users\user\documents\htk_project\qbell_master_mb_v1_2_f10\app.c"
 115  0000              _app_eeprom_check .section 'code'
 115  0000              _app_eeprom_check proc
 115  0000  000C[           local _app_eeprom_check_2 db 12 dup(?)	; 0,12
            00
            ]
 115  000C              #pragma debug variable 8 5 _app_eeprom_check_2+10 "i"
 115  000C              #pragma debug array 42 7 10 5
 115  000C              #pragma debug array 42 7 10 5
 115  000C              #pragma debug variable 42 5 _app_eeprom_check_2+0 "tempValue"
 118  000C              #line 118 "c:\users\user\documents\htk_project\qbell_master_mb_v1_2_f10\app.c"
 118  0000  0F00     R  	mov a,low offset _LC3
 118  0001  0080     E  	mov _uart_printf_2[0],a
 118  0002  0F00     R  	mov a,high offset _LC3
 118  0003  0080     E  	mov _uart_printf_2[1],a
 118  0004  2000     E  	call _uart_printf
 118  0005  0F04        	mov a,4
 118  0006  0080     R  	mov _app_eeprom_check_2[11],a
 119  0007              #line 119 "c:\users\user\documents\htk_project\qbell_master_mb_v1_2_f10\app.c"
 119  0007  1F00     R  	clr _app_eeprom_check_2[10]
 119  0008              _L26:
 121  0008              #line 121 "c:\users\user\documents\htk_project\qbell_master_mb_v1_2_f10\app.c"
"File: app.c         Assembler  Version HGASM0202      Page 7

 121  0008  0700     R  	mov a,_app_eeprom_check_2[10]
 121  0009  2000     E  	call _eeprom_read
 121  000A  0080     E  	mov ra,a
 121  000B  0F00     E  	mov a,low (offset _intF+6)
 121  000C  0300     R  	add a,_app_eeprom_check_2[10]
 121  000D  0083        	mov mp,a
 121  000E  0F00     E  	mov a,high (offset _intF+6)
 121  000F  1F04        	clr sbp
 121  0010  1384        	adcm a,sbp
 121  0011  0700     E  	mov a,ra
 121  0012  0082        	mov ir,a
 122  0013              #line 122 "c:\users\user\documents\htk_project\qbell_master_mb_v1_2_f10\app.c"
 122  0013              ;# 122 "c:\users\user\documents\htk_project\qbell_master_mb_v1_2_f10\app.c" 1
 122  0013  0001        	clr wdt
 123  0014              #line 123 "c:\users\user\documents\htk_project\qbell_master_mb_v1_2_f10\app.c"
 123  0014  0F0A        	mov a,10
 123  0015  0080     E  	mov _itoa_2[4],a
 123  0016  1F00     E  	clr _itoa_2[5]
 123  0017  0F00     R  	mov a,low offset _app_eeprom_check_2
 123  0018  0080     E  	mov _itoa_2[2],a
 123  0019  0F00     R  	mov a,high offset _app_eeprom_check_2
 123  001A  0080     E  	mov _itoa_2[3],a
 123  001B  0700     E  	mov a,ra
 123  001C  0080     E  	mov _itoa_2[0],a
 123  001D  1F00     E  	clr _itoa_2[1]
 123  001E  2000     E  	call _itoa
 124  001F              #line 124 "c:\users\user\documents\htk_project\qbell_master_mb_v1_2_f10\app.c"
 124  001F  0F00     R  	mov a,low offset _app_eeprom_check_2
 124  0020  0080     E  	mov _uart_printf_2[0],a
 124  0021  0F00     R  	mov a,high offset _app_eeprom_check_2
 124  0022  0080     E  	mov _uart_printf_2[1],a
 124  0023  2000     E  	call _uart_printf
 125  0024              #line 125 "c:\users\user\documents\htk_project\qbell_master_mb_v1_2_f10\app.c"
 125  0024  0F00     R  	mov a,low offset _LC4
 125  0025  0080     E  	mov _uart_printf_2[0],a
 125  0026  0F00     R  	mov a,high offset _LC4
 125  0027  0080     E  	mov _uart_printf_2[1],a
 125  0028  2000     E  	call _uart_printf
 119  0029              #line 119 "c:\users\user\documents\htk_project\qbell_master_mb_v1_2_f10\app.c"
 119  0029  1480     R  	inc _app_eeprom_check_2[10]
 119  002A  1780     R  	sdz _app_eeprom_check_2[11]
 119  002B  2800     R  	jmp _L26
 127  002C              #line 127 "c:\users\user\documents\htk_project\qbell_master_mb_v1_2_f10\app.c"
 127  002C  0F00     R  	mov a,low offset _LC5
 127  002D  0080     E  	mov _uart_printf_2[0],a
 127  002E  0F00     R  	mov a,high offset _LC5
 127  002F  0080     E  	mov _uart_printf_2[1],a
 127  0030  2000     E  	call _uart_printf
 128  0031              #line 128 "c:\users\user\documents\htk_project\qbell_master_mb_v1_2_f10\app.c"
 128  0031  0F64        	mov a,100
 128  0032  0080     R  	mov _delay_2[0],a
 128  0033  1F00     R  	clr _delay_2[1]
 128  0034  2000     R  	call _delay
 130  0035              #line 130 "c:\users\user\documents\htk_project\qbell_master_mb_v1_2_f10\app.c"
 130  0035  0F00     R  	mov a,low offset _LC6
 130  0036  0080     E  	mov _uart_printf_2[0],a
 130  0037  0F00     R  	mov a,high offset _LC6
 130  0038  0080     E  	mov _uart_printf_2[1],a
 130  0039  2000     E  	call _uart_printf
 131  003A              #line 131 "c:\users\user\documents\htk_project\qbell_master_mb_v1_2_f10\app.c"
"File: app.c         Assembler  Version HGASM0202      Page 8

 131  003A  2000     E  	call _eepromPstatusCheck
 132  003B              #line 132 "c:\users\user\documents\htk_project\qbell_master_mb_v1_2_f10\app.c"
 132  003B  0700     E  	mov a,_intF[26]
 132  003C  2000     E  	call _uart_send
 133  003D              #line 133 "c:\users\user\documents\htk_project\qbell_master_mb_v1_2_f10\app.c"
 133  003D  0F00     R  	mov a,low offset _LC5
 133  003E  0080     E  	mov _uart_printf_2[0],a
 133  003F  0F00     R  	mov a,high offset _LC5
 133  0040  0080     E  	mov _uart_printf_2[1],a
 133  0041  2000     E  	call _uart_printf
 135  0042              #line 135 "c:\users\user\documents\htk_project\qbell_master_mb_v1_2_f10\app.c"
 135  0042  0700     E  	mov a,_intF[26]
 135  0043  0080     R  	mov _app_eeprom_check_2[10],a
 135  0044  1700     R  	sdza _app_eeprom_check_2[10]
 135  0045  2800     R  	jmp _L27
 137  0046              #line 137 "c:\users\user\documents\htk_project\qbell_master_mb_v1_2_f10\app.c"
 137  0046  0F00     R  	mov a,low offset _LC7
 137  0047  0080     E  	mov _uart_printf_2[0],a
 137  0048  0F00     R  	mov a,high offset _LC7
 137  0049  0080     E  	mov _uart_printf_2[1],a
 137  004A  2000     E  	call _uart_printf
 138  004B              #line 138 "c:\users\user\documents\htk_project\qbell_master_mb_v1_2_f10\app.c"
 138  004B  2000     E  	call _eepromP1Read
 139  004C              #line 139 "c:\users\user\documents\htk_project\qbell_master_mb_v1_2_f10\app.c"
 139  004C  0F00     E  	mov a,low (offset _intF+21)
 139  004D  0080     E  	mov _uart_printf_2[0],a
 139  004E  0F00     E  	mov a,high (offset _intF+21)
 139  004F  0080     E  	mov _uart_printf_2[1],a
 139  0050  2000     E  	call _uart_printf
 140  0051              #line 140 "c:\users\user\documents\htk_project\qbell_master_mb_v1_2_f10\app.c"
 140  0051  0F00     R  	mov a,low offset _LC5
 140  0052  0080     E  	mov _uart_printf_2[0],a
 140  0053  0F00     R  	mov a,high offset _LC5
 140  0054  0080     E  	mov _uart_printf_2[1],a
 140  0055  2800     R  	jmp _L29
 140  0056              _L27:
 142  0056              #line 142 "c:\users\user\documents\htk_project\qbell_master_mb_v1_2_f10\app.c"
 142  0056  1080     R  	sz _app_eeprom_check_2[10]
 142  0057  2800     R  	jmp _L24
 144  0058              #line 144 "c:\users\user\documents\htk_project\qbell_master_mb_v1_2_f10\app.c"
 144  0058  0F00     R  	mov a,low offset _LC8
 144  0059  0080     E  	mov _uart_printf_2[0],a
 144  005A  0F00     R  	mov a,high offset _LC8
 144  005B  0080     E  	mov _uart_printf_2[1],a
 144  005C              _L29:
 144  005C  2000     E  	call _uart_printf
 144  005D              _L24:
 144  005D  0003        	ret
 144  005E              _app_eeprom_check endp
 144  005E              #line 144 "c:\users\user\documents\htk_project\qbell_master_mb_v1_2_f10\app.c"
 144  005E              #pragma debug scope 1 1
 144  004F              @crom	.section 'crom'
 144  004F              _LC9:
 144  004F              	db 04eh,06fh,074h,069h,066h,069h,063h,061h,074h,069h
 144  0054              	db 06fh,06eh,020h,052h,065h,063h,065h,069h,076h,065h
 144  0059              	db 064h,020h,066h,072h,06fh,06dh,020h,050h,061h,069h
 144  005E              	db 072h,065h,064h,020h,044h,065h,076h,069h,063h,065h
 144  0063              	db 0ah,00h
 144  0064              @crom	.section 'crom'
 144  0064              _LC10:
"File: app.c         Assembler  Version HGASM0202      Page 9

 144  0064              	db 04ch,06fh,077h,020h,056h,06fh,06ch,074h,061h,067h
 144  0069              	db 065h,020h,044h,065h,074h,065h,063h,074h,065h,064h
 144  006E              	db 0ah,00h
 144  006F              public _app
 144  006F              #pragma debug scope 6 1
 149  006F              #line 149 "c:\users\user\documents\htk_project\qbell_master_mb_v1_2_f10\app.c"
 149  0000              _app .section 'code'
 149  0000              _app proc
 149  0000  00              local _app_2 db 1 dup(?)	; 0,1
 165  0001              #line 165 "c:\users\user\documents\htk_project\qbell_master_mb_v1_2_f10\app.c"
 165  0000  1E00     E  	snz _intF[0]
 165  0001  2800     R  	jmp _L31
 165  0002              #pragma debug scope 7 6
 165  0002              ;begin block, line: 165.-1
 167  0002              #line 167 "c:\users\user\documents\htk_project\qbell_master_mb_v1_2_f10\app.c"
 167  0002  1F00     E  	clr _intF[0]
 171  0003              #line 171 "c:\users\user\documents\htk_project\qbell_master_mb_v1_2_f10\app.c"
 171  0003  0700     E  	mov a,_intF[13]
 171  0004  0080     E  	mov rc,a
 171  0005  0700     E  	mov a,_intF[14]
 171  0006  0080     E  	mov rb,a
 171  0007  0700     E  	mov a,_intF[15]
 171  0008  0080     E  	mov ra,a
 174  0009              #line 174 "c:\users\user\documents\htk_project\qbell_master_mb_v1_2_f10\app.c"
 174  0009  0700     E  	mov a,_intF[12]
 174  000A  0A30        	sub a,48
 174  000B  390A        	snz z
 174  000C  2800     R  	jmp _L31
 174  000D  0700     E  	mov a,_intF[7]
 174  000E  0200     E  	sub a,rc
 174  000F  390A        	snz z
 174  0010  2800     R  	jmp _L31
 174  0011  0700     E  	mov a,_intF[8]
 174  0012  0200     E  	sub a,rb
 174  0013  390A        	snz z
 174  0014  2800     R  	jmp _L31
 175  0015              #line 175 "c:\users\user\documents\htk_project\qbell_master_mb_v1_2_f10\app.c"
 175  0015  0700     E  	mov a,_intF[9]
 175  0016  0200     E  	sub a,ra
 175  0017  390A        	snz z
 175  0018  2800     R  	jmp _L31
 175  0019              #pragma debug scope 8 7
 175  0019              ;begin block, line: 175.-1
 175  0019              #pragma debug variable 8 8 _app_2+0 "i"
 181  0019              #line 181 "c:\users\user\documents\htk_project\qbell_master_mb_v1_2_f10\app.c"
 181  0019  0F00     R  	mov a,low offset _LC9
 181  001A  0080     E  	mov _uart_printf_2[0],a
 181  001B  0F00     R  	mov a,high offset _LC9
 181  001C  0080     E  	mov _uart_printf_2[1],a
 181  001D  2000     E  	call _uart_printf
 182  001E              #line 182 "c:\users\user\documents\htk_project\qbell_master_mb_v1_2_f10\app.c"
 182  001E  2000     R  	call _sw0_status_check
 184  001F              #line 184 "c:\users\user\documents\htk_project\qbell_master_mb_v1_2_f10\app.c"
 184  001F  36A5        	clr [37].5
 185  0020              #line 185 "c:\users\user\documents\htk_project\qbell_master_mb_v1_2_f10\app.c"
 185  0020  1F00     R  	clr _app_2[0]
 185  0021              _L33:
 185  0021  0700     R  	mov a,_app_2[0]
 185  0022  0200     E  	sub a,_intF[3]
 185  0023  3C0A        	sz c
"File: app.c         Assembler  Version HGASM0202      Page 10

 185  0024  2800     R  	jmp _L36
 187  0025              #line 187 "c:\users\user\documents\htk_project\qbell_master_mb_v1_2_f10\app.c"
 187  0025  0F09        	mov a,9
 187  0026  0200     R  	sub a,_app_2[0]
 187  0027  380A        	snz c
 187  0028  2800     R  	jmp _L34
 189  0029              #line 189 "c:\users\user\documents\htk_project\qbell_master_mb_v1_2_f10\app.c"
 189  0029  32A5        	set [37].5
 190  002A              #line 190 "c:\users\user\documents\htk_project\qbell_master_mb_v1_2_f10\app.c"
 190  002A  3E25        	sz [37].4
 190  002B  2800     R  	jmp _L35
 190  002C              _L36:
 243  002C              #line 243 "c:\users\user\documents\htk_project\qbell_master_mb_v1_2_f10\app.c"
 243  002C  2000     E  	call _ktd_en
 244  002D              #line 244 "c:\users\user\documents\htk_project\qbell_master_mb_v1_2_f10\app.c"
 244  002D  2000     E  	call _ktd_clear
 245  002E              #line 245 "c:\users\user\documents\htk_project\qbell_master_mb_v1_2_f10\app.c"
 245  002E  36A5        	clr [37].5
 247  002F              #line 247 "c:\users\user\documents\htk_project\qbell_master_mb_v1_2_f10\app.c"
 247  002F  0700     E  	mov a,_intF[4]
 247  0030  2000     E  	call _rgb_mode
 248  0031              #line 248 "c:\users\user\documents\htk_project\qbell_master_mb_v1_2_f10\app.c"
 248  0031  0F88        	mov a,-120
 248  0032  0080     R  	mov _delay_2[0],a
 248  0033  0F13        	mov a,19
 248  0034  0080     R  	mov _delay_2[1],a
 248  0035  2000     R  	call _delay
 249  0036              #line 249 "c:\users\user\documents\htk_project\qbell_master_mb_v1_2_f10\app.c"
 249  0036  2000     E  	call _led_clear
 249  0037  2800     R  	jmp _L31
 249  0038              _L35:
 192  0038              #line 192 "c:\users\user\documents\htk_project\qbell_master_mb_v1_2_f10\app.c"
 192  0038  0F0C        	mov a,12
 192  0039  0080     E  	mov _ktd_clockwise_ring_p1_2[5],a
 192  003A  0F01        	mov a,1
 192  003B  0080     E  	mov _ktd_clockwise_ring_p1_2[4],a
 192  003C  0F0A        	mov a,10
 192  003D  0080     E  	mov _ktd_clockwise_ring_p1_2[2],a
 192  003E  1F00     E  	clr _ktd_clockwise_ring_p1_2[3]
 192  003F  0F97        	mov a,151
 192  0040  0080     E  	mov _ktd_clockwise_ring_p1_2[1],a
 192  0041  0F2B        	mov a,43
 192  0042  0080     E  	mov _ktd_clockwise_ring_p1_2[0],a
 192  0043  0F8C        	mov a,140
 192  0044  2000     E  	call _ktd_clockwise_ring_p1
 193  0045              #line 193 "c:\users\user\documents\htk_project\qbell_master_mb_v1_2_f10\app.c"
 193  0045  3A25        	snz [37].4
 193  0046  2800     R  	jmp _L36
 195  0047              #line 195 "c:\users\user\documents\htk_project\qbell_master_mb_v1_2_f10\app.c"
 195  0047  0F0C        	mov a,12
 195  0048  0080     E  	mov _ktd_anticlockwise_ring_p1_2[5],a
 195  0049  0F01        	mov a,1
 195  004A  0080     E  	mov _ktd_anticlockwise_ring_p1_2[4],a
 195  004B  0F0A        	mov a,10
 195  004C  0080     E  	mov _ktd_anticlockwise_ring_p1_2[2],a
 195  004D  1F00     E  	clr _ktd_anticlockwise_ring_p1_2[3]
 195  004E  0F97        	mov a,151
 195  004F  0080     E  	mov _ktd_anticlockwise_ring_p1_2[1],a
 195  0050  0F2B        	mov a,43
 195  0051  0080     E  	mov _ktd_anticlockwise_ring_p1_2[0],a
"File: app.c         Assembler  Version HGASM0202      Page 11

 195  0052  0F8C        	mov a,140
 195  0053  2000     E  	call _ktd_anticlockwise_ring_p1
 197  0054              #line 197 "c:\users\user\documents\htk_project\qbell_master_mb_v1_2_f10\app.c"
 197  0054  3A25        	snz [37].4
 197  0055  2800     R  	jmp _L36
 199  0056              #line 199 "c:\users\user\documents\htk_project\qbell_master_mb_v1_2_f10\app.c"
 199  0056  36A5        	clr [37].5
 200  0057              #line 200 "c:\users\user\documents\htk_project\qbell_master_mb_v1_2_f10\app.c"
 200  0057  0F0C        	mov a,12
 200  0058  0080     E  	mov _ktd_clockwise_ring_p1_2[5],a
 200  0059  0F01        	mov a,1
 200  005A  0080     E  	mov _ktd_clockwise_ring_p1_2[4],a
 200  005B  0F0A        	mov a,10
 200  005C  0080     E  	mov _ktd_clockwise_ring_p1_2[2],a
 200  005D  1F00     E  	clr _ktd_clockwise_ring_p1_2[3]
 200  005E  0FD9        	mov a,217
 200  005F  0080     E  	mov _ktd_clockwise_ring_p1_2[1],a
 200  0060  0F27        	mov a,39
 200  0061  0080     E  	mov _ktd_clockwise_ring_p1_2[0],a
 200  0062  0F16        	mov a,22
 200  0063  2000     E  	call _ktd_clockwise_ring_p1
 201  0064              #line 201 "c:\users\user\documents\htk_project\qbell_master_mb_v1_2_f10\app.c"
 201  0064  3A25        	snz [37].4
 201  0065  2800     R  	jmp _L36
 203  0066              #line 203 "c:\users\user\documents\htk_project\qbell_master_mb_v1_2_f10\app.c"
 203  0066  0F0C        	mov a,12
 203  0067  0080     E  	mov _ktd_anticlockwise_ring_p1_2[5],a
 203  0068  0F01        	mov a,1
 203  0069  0080     E  	mov _ktd_anticlockwise_ring_p1_2[4],a
 203  006A  0F0A        	mov a,10
 203  006B  0080     E  	mov _ktd_anticlockwise_ring_p1_2[2],a
 203  006C  1F00     E  	clr _ktd_anticlockwise_ring_p1_2[3]
 203  006D  0FD9        	mov a,217
 203  006E  0080     E  	mov _ktd_anticlockwise_ring_p1_2[1],a
 203  006F  0F27        	mov a,39
 203  0070  0080     E  	mov _ktd_anticlockwise_ring_p1_2[0],a
 203  0071  0F16        	mov a,22
 203  0072  2000     E  	call _ktd_anticlockwise_ring_p1
 205  0073              #line 205 "c:\users\user\documents\htk_project\qbell_master_mb_v1_2_f10\app.c"
 205  0073  3A25        	snz [37].4
 205  0074  2800     R  	jmp _L36
 207  0075              #line 207 "c:\users\user\documents\htk_project\qbell_master_mb_v1_2_f10\app.c"
 207  0075  32A5        	set [37].5
 208  0076              #line 208 "c:\users\user\documents\htk_project\qbell_master_mb_v1_2_f10\app.c"
 208  0076  0F0C        	mov a,12
 208  0077  0080     E  	mov _ktd_clockwise_ring_p1_2[5],a
 208  0078  0F01        	mov a,1
 208  0079  0080     E  	mov _ktd_clockwise_ring_p1_2[4],a
 208  007A  0F0A        	mov a,10
 208  007B  0080     E  	mov _ktd_clockwise_ring_p1_2[2],a
 208  007C  1F00     E  	clr _ktd_clockwise_ring_p1_2[3]
 208  007D  0F14        	mov a,20
 208  007E  0080     E  	mov _ktd_clockwise_ring_p1_2[1],a
 208  007F  0FBA        	mov a,186
 208  0080  0080     E  	mov _ktd_clockwise_ring_p1_2[0],a
 208  0081  0F11        	mov a,17
 208  0082  2000     E  	call _ktd_clockwise_ring_p1
 209  0083              #line 209 "c:\users\user\documents\htk_project\qbell_master_mb_v1_2_f10\app.c"
 209  0083  3A25        	snz [37].4
 209  0084  2800     R  	jmp _L36
"File: app.c         Assembler  Version HGASM0202      Page 12

 211  0085              #line 211 "c:\users\user\documents\htk_project\qbell_master_mb_v1_2_f10\app.c"
 211  0085  0F0C        	mov a,12
 211  0086  0080     E  	mov _ktd_anticlockwise_ring_p1_2[5],a
 211  0087  0F01        	mov a,1
 211  0088  0080     E  	mov _ktd_anticlockwise_ring_p1_2[4],a
 211  0089  0F0A        	mov a,10
 211  008A  0080     E  	mov _ktd_anticlockwise_ring_p1_2[2],a
 211  008B  1F00     E  	clr _ktd_anticlockwise_ring_p1_2[3]
 211  008C  0F14        	mov a,20
 211  008D  0080     E  	mov _ktd_anticlockwise_ring_p1_2[1],a
 211  008E  0FBA        	mov a,186
 211  008F  0080     E  	mov _ktd_anticlockwise_ring_p1_2[0],a
 211  0090  0F11        	mov a,17
 211  0091  2000     E  	call _ktd_anticlockwise_ring_p1
 213  0092              #line 213 "c:\users\user\documents\htk_project\qbell_master_mb_v1_2_f10\app.c"
 213  0092  3A25        	snz [37].4
 213  0093  2800     R  	jmp _L36
 215  0094              #line 215 "c:\users\user\documents\htk_project\qbell_master_mb_v1_2_f10\app.c"
 215  0094  36A5        	clr [37].5
 216  0095              #line 216 "c:\users\user\documents\htk_project\qbell_master_mb_v1_2_f10\app.c"
 216  0095  0F0A        	mov a,10
 216  0096  0080     R  	mov _delay_2[0],a
 216  0097  1F00     R  	clr _delay_2[1]
 216  0098  2800     R  	jmp _L82
 216  0099              _L34:
 220  0099              #line 220 "c:\users\user\documents\htk_project\qbell_master_mb_v1_2_f10\app.c"
 220  0099  0F24        	mov a,36
 220  009A  0080     E  	mov _ktd_ctrl_2[0],a
 220  009B  0F80        	mov a,128
 220  009C  2000     E  	call _ktd_ctrl
 221  009D              #line 221 "c:\users\user\documents\htk_project\qbell_master_mb_v1_2_f10\app.c"
 221  009D  32A5        	set [37].5
 222  009E              #line 222 "c:\users\user\documents\htk_project\qbell_master_mb_v1_2_f10\app.c"
 222  009E  3A25        	snz [37].4
 222  009F  2800     R  	jmp _L36
 224  00A0              #line 224 "c:\users\user\documents\htk_project\qbell_master_mb_v1_2_f10\app.c"
 224  00A0  1F00     E  	clr _ktd_rgb_ctrl_2[1]
 224  00A1  1F00     E  	clr _ktd_rgb_ctrl_2[0]
 224  00A2  0FFF        	mov a,255
 224  00A3  2000     E  	call _ktd_rgb_ctrl
 225  00A4              #line 225 "c:\users\user\documents\htk_project\qbell_master_mb_v1_2_f10\app.c"
 225  00A4  0FE8        	mov a,-24
 225  00A5  0080     R  	mov _delay_2[0],a
 225  00A6  0F03        	mov a,3
 225  00A7  0080     R  	mov _delay_2[1],a
 225  00A8  2000     R  	call _delay
 226  00A9              #line 226 "c:\users\user\documents\htk_project\qbell_master_mb_v1_2_f10\app.c"
 226  00A9  3A25        	snz [37].4
 226  00AA  2800     R  	jmp _L36
 228  00AB              #line 228 "c:\users\user\documents\htk_project\qbell_master_mb_v1_2_f10\app.c"
 228  00AB  1F00     E  	clr _ktd_rgb_ctrl_2[1]
 228  00AC  1F80     E  	set _ktd_rgb_ctrl_2[0]
 228  00AD  0F00        	mov a,0
 228  00AE  2000     E  	call _ktd_rgb_ctrl
 229  00AF              #line 229 "c:\users\user\documents\htk_project\qbell_master_mb_v1_2_f10\app.c"
 229  00AF  0FE8        	mov a,-24
 229  00B0  0080     R  	mov _delay_2[0],a
 229  00B1  0F03        	mov a,3
 229  00B2  0080     R  	mov _delay_2[1],a
 229  00B3  2000     R  	call _delay
"File: app.c         Assembler  Version HGASM0202      Page 13

 230  00B4              #line 230 "c:\users\user\documents\htk_project\qbell_master_mb_v1_2_f10\app.c"
 230  00B4  3A25        	snz [37].4
 230  00B5  2800     R  	jmp _L36
 232  00B6              #line 232 "c:\users\user\documents\htk_project\qbell_master_mb_v1_2_f10\app.c"
 232  00B6  1F80     E  	set _ktd_rgb_ctrl_2[1]
 232  00B7  1F00     E  	clr _ktd_rgb_ctrl_2[0]
 232  00B8  0F00        	mov a,0
 232  00B9  2000     E  	call _ktd_rgb_ctrl
 233  00BA              #line 233 "c:\users\user\documents\htk_project\qbell_master_mb_v1_2_f10\app.c"
 233  00BA  0FE8        	mov a,-24
 233  00BB  0080     R  	mov _delay_2[0],a
 233  00BC  0F03        	mov a,3
 233  00BD  0080     R  	mov _delay_2[1],a
 233  00BE  2000     R  	call _delay
 234  00BF              #line 234 "c:\users\user\documents\htk_project\qbell_master_mb_v1_2_f10\app.c"
 234  00BF  3A25        	snz [37].4
 234  00C0  2800     R  	jmp _L36
 236  00C1              #line 236 "c:\users\user\documents\htk_project\qbell_master_mb_v1_2_f10\app.c"
 236  00C1  36A5        	clr [37].5
 237  00C2              #line 237 "c:\users\user\documents\htk_project\qbell_master_mb_v1_2_f10\app.c"
 237  00C2  2000     E  	call _ktd_clear
 238  00C3              #line 238 "c:\users\user\documents\htk_project\qbell_master_mb_v1_2_f10\app.c"
 238  00C3  3A25        	snz [37].4
 238  00C4  2800     R  	jmp _L36
 240  00C5              #line 240 "c:\users\user\documents\htk_project\qbell_master_mb_v1_2_f10\app.c"
 240  00C5  0FD0        	mov a,-48
 240  00C6  0080     R  	mov _delay_2[0],a
 240  00C7  0F07        	mov a,7
 240  00C8  0080     R  	mov _delay_2[1],a
 240  00C9              _L82:
 240  00C9  2000     R  	call _delay
 185  00CA              #line 185 "c:\users\user\documents\htk_project\qbell_master_mb_v1_2_f10\app.c"
 185  00CA  1480     R  	inc _app_2[0]
 185  00CB  2800     R  	jmp _L33
 185  00CC              _L31:
 185  00CC              #pragma debug scope 7 6
 185  00CC              #pragma debug scope 6 1
 278  00CC              #line 278 "c:\users\user\documents\htk_project\qbell_master_mb_v1_2_f10\app.c"
 278  00CC  2000     E  	call _lvd_read
 280  00CD              #line 280 "c:\users\user\documents\htk_project\qbell_master_mb_v1_2_f10\app.c"
 280  00CD  1080     E  	sz _intF[31]
 280  00CE  2800     R  	jmp _L39
 280  00CF              _L47:
 311  00CF              #line 311 "c:\users\user\documents\htk_project\qbell_master_mb_v1_2_f10\app.c"
 311  00CF  0700     E  	mov a,_BC3602_T[0]
 311  00D0  0A04        	sub a,4
 311  00D1  390A        	snz z
 311  00D2  2800     R  	jmp _L41
 312  00D3              #line 312 "c:\users\user\documents\htk_project\qbell_master_mb_v1_2_f10\app.c"
 312  00D3  0F00     E  	mov a,low offset _BC3602_T
 312  00D4  0080     E  	mov _ExtendFIFO_TX_Process_2[0],a
 312  00D5  0F00     E  	mov a,high offset _BC3602_T
 312  00D6  0080     E  	mov _ExtendFIFO_TX_Process_2[1],a
 312  00D7  2000     E  	call _ExtendFIFO_TX_Process
 312  00D8  2800     R  	jmp _L41
 312  00D9              _L39:
 280  00D9              #line 280 "c:\users\user\documents\htk_project\qbell_master_mb_v1_2_f10\app.c"
 280  00D9  0F0B        	mov a,11
 280  00DA  0080     R  	mov _app_2[0],a
 280  00DB              _L42:
"File: app.c         Assembler  Version HGASM0202      Page 14

 280  00DB              #pragma debug scope 9 6
 280  00DB              ;begin block, line: 280.-1
 280  00DB              #pragma debug variable 8 9 _app_2+0 "tempCount"
 284  00DB              #line 284 "c:\users\user\documents\htk_project\qbell_master_mb_v1_2_f10\app.c"
 284  00DB  1E00     E  	snz _intF[31]
 284  00DC  2800     R  	jmp _L47
 286  00DD              #line 286 "c:\users\user\documents\htk_project\qbell_master_mb_v1_2_f10\app.c"
 286  00DD  0F09        	mov a,9
 286  00DE  0200     R  	sub a,_app_2[0]
 286  00DF  3C0A        	sz c
 286  00E0  2800     R  	jmp _L43
 286  00E1  0F05        	mov a,5
 286  00E2  0080     R  	mov _app_2[0],a
 286  00E3              _L45:
 286  00E3              #pragma debug scope 10 9
 286  00E3              ;begin block, line: 286.-1
 293  00E3              #line 293 "c:\users\user\documents\htk_project\qbell_master_mb_v1_2_f10\app.c"
 293  00E3  0F11        	mov a,17
 293  00E4  2000     E  	call _rgb_mode
 294  00E5              #line 294 "c:\users\user\documents\htk_project\qbell_master_mb_v1_2_f10\app.c"
 294  00E5  0FE8        	mov a,-24
 294  00E6  0080     R  	mov _delay_2[0],a
 294  00E7  0F03        	mov a,3
 294  00E8  0080     R  	mov _delay_2[1],a
 294  00E9  2000     R  	call _delay
 295  00EA              #line 295 "c:\users\user\documents\htk_project\qbell_master_mb_v1_2_f10\app.c"
 295  00EA  2000     E  	call _led_clear
 296  00EB              #line 296 "c:\users\user\documents\htk_project\qbell_master_mb_v1_2_f10\app.c"
 296  00EB  0FE8        	mov a,-24
 296  00EC  0080     R  	mov _delay_2[0],a
 296  00ED  0F03        	mov a,3
 296  00EE  0080     R  	mov _delay_2[1],a
 296  00EF  2000     R  	call _delay
 296  00F0  1780     R  	sdz _app_2[0]
 296  00F1  2800     R  	jmp _L45
 302  00F2              #line 302 "c:\users\user\documents\htk_project\qbell_master_mb_v1_2_f10\app.c"
 302  00F2  2000     E  	call _ktd_clear
 288  00F3              #line 288 "c:\users\user\documents\htk_project\qbell_master_mb_v1_2_f10\app.c"
 288  00F3  1F00     R  	clr _app_2[0]
 288  00F4              _L43:
 288  00F4              #pragma debug scope 9 6
 304  00F4              #line 304 "c:\users\user\documents\htk_project\qbell_master_mb_v1_2_f10\app.c"
 304  00F4  1480     R  	inc _app_2[0]
 305  00F5              #line 305 "c:\users\user\documents\htk_project\qbell_master_mb_v1_2_f10\app.c"
 305  00F5  2000     E  	call _lvd_read
 306  00F6              #line 306 "c:\users\user\documents\htk_project\qbell_master_mb_v1_2_f10\app.c"
 306  00F6  0F00     R  	mov a,low offset _LC10
 306  00F7  0080     E  	mov _uart_printf_2[0],a
 306  00F8  0F00     R  	mov a,high offset _LC10
 306  00F9  0080     E  	mov _uart_printf_2[1],a
 306  00FA  2000     E  	call _uart_printf
 307  00FB              #line 307 "c:\users\user\documents\htk_project\qbell_master_mb_v1_2_f10\app.c"
 307  00FB  0FE8        	mov a,-24
 307  00FC  0080     R  	mov _delay_2[0],a
 307  00FD  0F03        	mov a,3
 307  00FE  0080     R  	mov _delay_2[1],a
 307  00FF  2000     R  	call _delay
 307  0100  2800     R  	jmp _L42
 307  0101              _L41:
 307  0101              #pragma debug scope 6 1
"File: app.c         Assembler  Version HGASM0202      Page 15

 314  0101              #line 314 "c:\users\user\documents\htk_project\qbell_master_mb_v1_2_f10\app.c"
 314  0101  0700     E  	mov a,_BC3602_T[0]
 314  0102  0A05        	sub a,5
 314  0103  390A        	snz z
 314  0104  2800     R  	jmp _L48
 315  0105              #line 315 "c:\users\user\documents\htk_project\qbell_master_mb_v1_2_f10\app.c"
 315  0105  0F00     E  	mov a,low offset _BC3602_T
 315  0106  0080     E  	mov _ExtendFIFO_RX_Process_2[0],a
 315  0107  0F00     E  	mov a,high offset _BC3602_T
 315  0108  0080     E  	mov _ExtendFIFO_RX_Process_2[1],a
 315  0109  2000     E  	call _ExtendFIFO_RX_Process
 315  010A              _L48:
 317  010A              #line 317 "c:\users\user\documents\htk_project\qbell_master_mb_v1_2_f10\app.c"
 317  010A  0F00     E  	mov a,low offset _BC3602_T
 317  010B  0080     E  	mov _RF_Finished_Process_2[0],a
 317  010C  0F00     E  	mov a,high offset _BC3602_T
 317  010D  0080     E  	mov _RF_Finished_Process_2[1],a
 317  010E  2000     E  	call _RF_Finished_Process
 317  010F  0003        	ret
 317  0110              _app endp
 317  0110              #line 317 "c:\users\user\documents\htk_project\qbell_master_mb_v1_2_f10\app.c"
 317  0110              #pragma debug scope 1 1
 317  0110              #pragma debug struct_end
 317  0110              #pragma debug struct_end
 317  0110              #pragma debug union_end
 317  0110              #pragma debug union_end
 317  0110              #pragma debug variable 44 1 ___wdtc "__wdtc" 1
 317  0110              #pragma debug struct_end
 317  0110              #pragma debug struct_end
 317  0110              #pragma debug union_end
 317  0110              #pragma debug union_end
 317  0110              #pragma debug variable 46 1 ___pb "__pb" 1
 317  0110              
 317  0110              ; output external variables
 317  0110              extern _BC3602_T:byte
 317  0110              extern _intF:byte
 317  0110              extern _uart_printf_2:byte
 317  0110              extern _uart_printf:near
 317  0110              extern _adc_init:near
 317  0110              extern _IIC_Init:near
 317  0110              extern _ktd_en:near
 317  0110              extern _ktd_clear:near
 317  0110              extern _int_init:near
 317  0110              extern _RF_Init:near
 317  0110              extern _RF_Parameter_loading:near
 317  0110              extern _SpiWriteRegCMD_2:byte
 317  0110              extern _SpiWriteRegCMD:near
 317  0110              extern _ktd_clockwise_ring_p1_2:byte
 317  0110              extern _ktd_clockwise_ring_p1:near
 317  0110              extern _ktd_anticlockwise_ring_p1_2:byte
 317  0110              extern _ktd_anticlockwise_ring_p1:near
 317  0110              extern _eeprom_read:near
 317  0110              extern _itoa_2:byte
 317  0110              extern _itoa:near
 317  0110              extern _eepromPstatusCheck:near
 317  0110              extern _uart_send:near
 317  0110              extern _eepromP1Read:near
 317  0110              extern _rgb_mode:near
 317  0110              extern _led_clear:near
 317  0110              extern _ktd_ctrl_2:byte
"File: app.c         Assembler  Version HGASM0202      Page 16

 317  0110              extern _ktd_ctrl:near
 317  0110              extern _ktd_rgb_ctrl_2:byte
 317  0110              extern _ktd_rgb_ctrl:near
 317  0110              extern _lvd_read:near
 317  0110              extern _ExtendFIFO_TX_Process_2:byte
 317  0110              extern _ExtendFIFO_TX_Process:near
 317  0110              extern _ExtendFIFO_RX_Process_2:byte
 317  0110              extern _ExtendFIFO_RX_Process:near
 317  0110              extern _RF_Finished_Process_2:byte
 317  0110              extern _RF_Finished_Process:near
 317  0110              
 317  0110              ; 
 317  0110              ; Generated by holtek-gcc v3.19, Mon Oct 17 12:40:04 2022
 317  0110              ; Rebuild 718
 317  0110              ; end of file


        0 Errors, 0