"File: hal_eeprom.c  Assembler  Version HGASM0202      Page 1


   1  0000              ; Generated by holtek-gcc v3.19, Tue Oct 18 18:45:22 2022
   2  0000              ; 
   3  0000              ; Configuration:
   4  0000              ;       with long instruction
   5  0000              ;       Single ROM, Multi-RAM
   6  0000              ;       bits_per_rom_unit:16
   7  0000              ;       with mp1
   8  0000              ;       with tbhp, address(0x9)
   9  0000              ;          Use tabrd-const
  10  0000              ;       
  11  0000              ; SFR address of long-instruction arch:
  12  0000              ;    mp0 = -1,1,0
  13  0000              ;    mp1 = 4,3,2
  14  0000              ;    mp2 = 14,13,12
  15  0000              ;    tbp = 9,7,8
  16  0000              ;    acc = 5
  17  0000              ;    pcl = 6
  18  0000              ;    status = 10
  19  0000              ;    bp = 11
  20  0000              ;    intc = 17
  21  0000              ;       
  22  0000              ;       
  23  0000              ; use 'tabrdc' instead of 'tabrd'
  24  0000              ;       
  25  0000              
  26  0000              #pragma translator "holtek-gcc 4.6.4" "3.19" "build 20130711"
  27  0000              ; Rebuild 718
  28  0000              
  29  0000              ir equ [2]
  30  0000              mp equ [3]
  31  0000              sbp equ [4]
  32  0000              acc equ [5]
  33  0000              bp equ [11]
  34  0000              tblp equ [7]
  35  0000              tbhp equ [9]
  36  0000              status equ [10]
  37  0000              c equ [10].0
  38  0000              ac equ [10].1
  39  0000              z equ [10].2
  40  0000              ov equ [10].3
  41  0000              cz equ [10].6
  42  0000              sc equ [10].7
  43  0000              intc equ [17]
  44  0000              
  45  0000              extern ra:byte
  46  0000              extern rb:byte
  47  0000              extern rc:byte
  48  0000              extern rd:byte
  49  0000              extern re:byte
  50  0000              extern rf:byte
  51  0000              extern rg:byte
  52  0000              extern rh:byte
  53  0000              extern _Crom2Prom:near
  54  0000              extern _Crom2PromNext:near
  55  0000              
  56  0000              RAMBANK 0 @BITDATASEC, @BITDATASEC1
  57  0000              @HCCINIT	.section 'data'
  58  0000              @HCCINIT0	.section 'data'
  59  0000              @BITDATASEC	 .section 'data'
"File: hal_eeprom.ASM  Assembler  Version HGASM0202      Page 2

  60  0000              @BITDATASEC1	 .section 'data'
  61  0000              
  62  0000              #pragma debug scope 1 1
  63  0000              	extern __DELAY3:near
  64  0000              	extern __DELAYX3:near
  65  0000              	extern __DELAYX6:near
  66  0000              	extern __DELAYY5:near
  67  0000              	extern __DELAYY3:near
  68  0000              	extern _builtin_holtek_delay_2:byte
  69  0000              ___eec equ [320]
  70  0000              ___mp1h equ [4]
  71  0000              public _eeprom_init
  72  0000              #pragma debug scope 2 1

   7  0000              #line 7 "c:\users\user\documents\htk_project\qbell_master_mb_v1_2_f10\hal_eeprom.c"
   7  0000              _eeprom_init .section 'code'
   7  0000              _eeprom_init proc
   8  0000              #line 8 "c:\users\user\documents\htk_project\qbell_master_mb_v1_2_f10\hal_eeprom.c"
   8  0000  B540 0001   	lclr [320].2
   9  0002              #line 9 "c:\users\user\documents\htk_project\qbell_master_mb_v1_2_f10\hal_eeprom.c"
   9  0002  1F04        	clr [4]
   9  0003  0003        	ret
   9  0004              _eeprom_init endp
   9  0004              #line 9 "c:\users\user\documents\htk_project\qbell_master_mb_v1_2_f10\hal_eeprom.c"
   9  0004              #pragma debug scope 1 1
   9  0004              ___intc0 equ [17]
   9  0004              ___eea equ [30]
   9  0004              ___eed equ [31]
   9  0004              ___mp1l equ [3]
   9  0004              ___iar1 equ [2]
   9  0004              public _eeprom_write
   9  0004              #pragma debug scope 3 1
  13  0004              #line 13 "c:\users\user\documents\htk_project\qbell_master_mb_v1_2_f10\hal_eeprom.c"
  13  0000              _eeprom_write .section 'code'
  13  0000              _eeprom_write proc
  13  0000              public _eeprom_write_2
  13  0000  0002[           local _eeprom_write_2 db 2 dup(?)	; 1,1
            00
            ]
  13  0000  0080     R  	mov _eeprom_write_2[1],a
  13  0001              #pragma debug variable 8 3 _eeprom_write_2+1 "addrC"
  13  0001              #pragma debug variable 8 3 _eeprom_write_2+0 "byteValue"
  43  0001              #line 43 "c:\users\user\documents\htk_project\qbell_master_mb_v1_2_f10\hal_eeprom.c"
  43  0001  0711        	mov a,[17]
  43  0002  0E01        	and a,1
  43  0003  0080     E  	mov ra,a
  44  0004              #line 44 "c:\users\user\documents\htk_project\qbell_master_mb_v1_2_f10\hal_eeprom.c"
  44  0004  3411        	clr [17].0
  46  0005              #line 46 "c:\users\user\documents\htk_project\qbell_master_mb_v1_2_f10\hal_eeprom.c"
  46  0005  0700     R  	mov a,_eeprom_write_2[1]
  46  0006  009E        	mov [30],a
  47  0007              #line 47 "c:\users\user\documents\htk_project\qbell_master_mb_v1_2_f10\hal_eeprom.c"
  47  0007  0700     R  	mov a,_eeprom_write_2[0]
  47  0008  009F        	mov [31],a
  48  0009              #line 48 "c:\users\user\documents\htk_project\qbell_master_mb_v1_2_f10\hal_eeprom.c"
  48  0009  0F40        	mov a,64
  48  000A  0083        	mov [3],a
  49  000B              #line 49 "c:\users\user\documents\htk_project\qbell_master_mb_v1_2_f10\hal_eeprom.c"
  49  000B  0F01        	mov a,1
  49  000C  0084        	mov [4],a
"File: hal_eeprom.c  Assembler  Version HGASM0202      Page 3

  52  000D              #line 52 "c:\users\user\documents\htk_project\qbell_master_mb_v1_2_f10\hal_eeprom.c"
  52  000D  3182        	set [2].3
  53  000E              #line 53 "c:\users\user\documents\htk_project\qbell_master_mb_v1_2_f10\hal_eeprom.c"
  53  000E  3102        	set [2].2
  53  000F              _L4:
  55  000F              #line 55 "c:\users\user\documents\htk_project\qbell_master_mb_v1_2_f10\hal_eeprom.c"
  55  000F  3D02        	sz [2].2
  55  0010  2800     R  	jmp _L4
  56  0011              #line 56 "c:\users\user\documents\htk_project\qbell_master_mb_v1_2_f10\hal_eeprom.c"
  56  0011  3411        	clr [17].0
  56  0012  0700     E  	mov a,ra
  56  0013  0591        	orm a,[17]
  57  0014              #line 57 "c:\users\user\documents\htk_project\qbell_master_mb_v1_2_f10\hal_eeprom.c"
  57  0014  1F02        	clr [2]
  58  0015              #line 58 "c:\users\user\documents\htk_project\qbell_master_mb_v1_2_f10\hal_eeprom.c"
  58  0015  1F04        	clr [4]
  58  0016  0003        	ret
  58  0017              _eeprom_write endp
  58  0017              #line 58 "c:\users\user\documents\htk_project\qbell_master_mb_v1_2_f10\hal_eeprom.c"
  58  0017              #pragma debug scope 1 1
  58  0017              public _eeprom_read
  58  0017              #pragma debug scope 4 1
  65  0017              #line 65 "c:\users\user\documents\htk_project\qbell_master_mb_v1_2_f10\hal_eeprom.c"
  65  0000              _eeprom_read .section 'code'
  65  0000              _eeprom_read proc
  65  0000  0002[           local _eeprom_read_2 db 2 dup(?)	; 0,2
            00
            ]
  65  0000  0080     R  	mov _eeprom_read_2[0],a
  65  0001              #pragma debug variable 8 4 _eeprom_read_2+0 "addrV"
  88  0001              #line 88 "c:\users\user\documents\htk_project\qbell_master_mb_v1_2_f10\hal_eeprom.c"
  88  0001  0711        	mov a,[17]
  88  0002  0E01        	and a,1
  88  0003  0080     R  	mov _eeprom_read_2[1],a
  89  0004              #line 89 "c:\users\user\documents\htk_project\qbell_master_mb_v1_2_f10\hal_eeprom.c"
  89  0004  3411        	clr [17].0
  91  0005              #line 91 "c:\users\user\documents\htk_project\qbell_master_mb_v1_2_f10\hal_eeprom.c"
  91  0005  0700     R  	mov a,_eeprom_read_2[0]
  91  0006  009E        	mov [30],a
  92  0007              #line 92 "c:\users\user\documents\htk_project\qbell_master_mb_v1_2_f10\hal_eeprom.c"
  92  0007  0F40        	mov a,64
  92  0008  0083        	mov [3],a
  93  0009              #line 93 "c:\users\user\documents\htk_project\qbell_master_mb_v1_2_f10\hal_eeprom.c"
  93  0009  0F01        	mov a,1
  93  000A  0084        	mov [4],a
  94  000B              #line 94 "c:\users\user\documents\htk_project\qbell_master_mb_v1_2_f10\hal_eeprom.c"
  94  000B  0F0A        	mov a,10
  94  000C  0080     E  	mov _delay_2[0],a
  94  000D  1F00     E  	clr _delay_2[1]
  94  000E  2000     E  	call _delay
  98  000F              #line 98 "c:\users\user\documents\htk_project\qbell_master_mb_v1_2_f10\hal_eeprom.c"
  98  000F  3082        	set [2].1
  99  0010              #line 99 "c:\users\user\documents\htk_project\qbell_master_mb_v1_2_f10\hal_eeprom.c"
  99  0010  3002        	set [2].0
  99  0011              _L8:
 100  0011              #line 100 "c:\users\user\documents\htk_project\qbell_master_mb_v1_2_f10\hal_eeprom.c"
 100  0011  3C02        	sz [2].0
 100  0012  2800     R  	jmp _L8
 101  0013              #line 101 "c:\users\user\documents\htk_project\qbell_master_mb_v1_2_f10\hal_eeprom.c"
 101  0013  3411        	clr [17].0
"File: hal_eeprom.c  Assembler  Version HGASM0202      Page 4

 101  0014  0700     R  	mov a,_eeprom_read_2[1]
 101  0015  0591        	orm a,[17]
 102  0016              #line 102 "c:\users\user\documents\htk_project\qbell_master_mb_v1_2_f10\hal_eeprom.c"
 102  0016  1F02        	clr [2]
 103  0017              #line 103 "c:\users\user\documents\htk_project\qbell_master_mb_v1_2_f10\hal_eeprom.c"
 103  0017  1F04        	clr [4]
 104  0018              #line 104 "c:\users\user\documents\htk_project\qbell_master_mb_v1_2_f10\hal_eeprom.c"
 104  0018  071F        	mov a,[31]
 104  0019  0080     E  	mov ra,a
 108  001A              #line 108 "c:\users\user\documents\htk_project\qbell_master_mb_v1_2_f10\hal_eeprom.c"
 108  001A  0700     E  	mov a,ra
 108  001B  0003        	ret
 108  001C              _eeprom_read endp
 108  001C              #line 108 "c:\users\user\documents\htk_project\qbell_master_mb_v1_2_f10\hal_eeprom.c"
 108  001C              #pragma debug scope 1 1
 108  0000              @crom	.section 'crom'
 108  0000              _LC0:
 108  0000              	db 045h,045h,050h,052h,04fh,04dh,020h,044h,065h,076h
 108  0005              	db 069h,063h,065h,020h,041h,064h,064h,072h,065h,073h
 108  000A              	db 073h,020h,052h,065h,061h,064h,0ah,00h
 108  000E              public _eepromDeviceAddrRead
 108  000E              #pragma debug scope 5 1
 111  000E              #line 111 "c:\users\user\documents\htk_project\qbell_master_mb_v1_2_f10\hal_eeprom.c"
 111  0000              _eepromDeviceAddrRead .section 'code'
 111  0000              _eepromDeviceAddrRead proc
 111  0000  0002[           local _eepromDeviceAddrRead_2 db 2 dup(?)	; 0,2
            00
            ]
 111  0002              #pragma debug variable 8 5 _eepromDeviceAddrRead_2+0 "i"
 111  0000  0F04        	mov a,4
 111  0001  0080     R  	mov _eepromDeviceAddrRead_2[1],a
 113  0002              #line 113 "c:\users\user\documents\htk_project\qbell_master_mb_v1_2_f10\hal_eeprom.c"
 113  0002  1F00     R  	clr _eepromDeviceAddrRead_2[0]
 113  0003              _L11:
 114  0003              #line 114 "c:\users\user\documents\htk_project\qbell_master_mb_v1_2_f10\hal_eeprom.c"
 114  0003  0700     R  	mov a,_eepromDeviceAddrRead_2[0]
 114  0004  2000     R  	call _eeprom_read
 114  0005  0080     E  	mov ra,a
 114  0006  0F00     E  	mov a,low (offset _intF+6)
 114  0007  0300     R  	add a,_eepromDeviceAddrRead_2[0]
 114  0008  0083        	mov mp,a
 114  0009  0F00     E  	mov a,high (offset _intF+6)
 114  000A  1F04        	clr sbp
 114  000B  1384        	adcm a,sbp
 114  000C  0700     E  	mov a,ra
 114  000D  0082        	mov ir,a
 113  000E              #line 113 "c:\users\user\documents\htk_project\qbell_master_mb_v1_2_f10\hal_eeprom.c"
 113  000E  1480     R  	inc _eepromDeviceAddrRead_2[0]
 113  000F  1780     R  	sdz _eepromDeviceAddrRead_2[1]
 113  0010  2800     R  	jmp _L11
 115  0011              #line 115 "c:\users\user\documents\htk_project\qbell_master_mb_v1_2_f10\hal_eeprom.c"
 115  0011  0F00     R  	mov a,low offset _LC0
 115  0012  0080     E  	mov _uart_printf_2[0],a
 115  0013  0F00     R  	mov a,high offset _LC0
 115  0014  0080     E  	mov _uart_printf_2[1],a
 115  0015  2000     E  	call _uart_printf
 115  0016  0003        	ret
 115  0017              _eepromDeviceAddrRead endp
 115  0017              #line 115 "c:\users\user\documents\htk_project\qbell_master_mb_v1_2_f10\hal_eeprom.c"
 115  0017              #pragma debug scope 1 1
"File: hal_eeprom.c  Assembler  Version HGASM0202      Page 5

 115  000E              @crom	.section 'crom'
 115  000E              _LC1:
 115  000E              	db 045h,045h,050h,052h,04fh,04dh,020h,044h,065h,076h
 115  0013              	db 069h,063h,065h,020h,041h,064h,064h,072h,065h,073h
 115  0018              	db 073h,020h,043h,06fh,070h,079h,020h,052h,065h,061h
 115  001D              	db 064h,020h,044h,06fh,06eh,065h,0ah,00h
 115  0021              public _eepromDeviceAddrCpyRead
 115  0021              #pragma debug scope 6 1
 119  0021              #line 119 "c:\users\user\documents\htk_project\qbell_master_mb_v1_2_f10\hal_eeprom.c"
 119  0000              _eepromDeviceAddrCpyRead .section 'code'
 119  0000              _eepromDeviceAddrCpyRead proc
 119  0000  0002[           local _eepromDeviceAddrCpyRead_2 db 2 dup(?)	; 0,2
            00
            ]
 119  0002              #pragma debug variable 8 6 _eepromDeviceAddrCpyRead_2+0 "i"
 119  0000  0F04        	mov a,4
 119  0001  0080     R  	mov _eepromDeviceAddrCpyRead_2[1],a
 121  0002              #line 121 "c:\users\user\documents\htk_project\qbell_master_mb_v1_2_f10\hal_eeprom.c"
 121  0002  0F05        	mov a,5
 121  0003  0080     R  	mov _eepromDeviceAddrCpyRead_2[0],a
 121  0004              _L14:
 122  0004              #line 122 "c:\users\user\documents\htk_project\qbell_master_mb_v1_2_f10\hal_eeprom.c"
 122  0004  0700     R  	mov a,_eepromDeviceAddrCpyRead_2[0]
 122  0005  2000     R  	call _eeprom_read
 122  0006  0080     E  	mov ra,a
 122  0007  0F00     E  	mov a,low (offset _intF+28)
 122  0008  0300     R  	add a,_eepromDeviceAddrCpyRead_2[0]
 122  0009  0083        	mov mp,a
 122  000A  0F00     E  	mov a,high (offset _intF+28)
 122  000B  1F04        	clr sbp
 122  000C  1384        	adcm a,sbp
 122  000D  0700     E  	mov a,ra
 122  000E  0082        	mov ir,a
 121  000F              #line 121 "c:\users\user\documents\htk_project\qbell_master_mb_v1_2_f10\hal_eeprom.c"
 121  000F  1480     R  	inc _eepromDeviceAddrCpyRead_2[0]
 121  0010  1780     R  	sdz _eepromDeviceAddrCpyRead_2[1]
 121  0011  2800     R  	jmp _L14
 123  0012              #line 123 "c:\users\user\documents\htk_project\qbell_master_mb_v1_2_f10\hal_eeprom.c"
 123  0012  0F00     R  	mov a,low offset _LC1
 123  0013  0080     E  	mov _uart_printf_2[0],a
 123  0014  0F00     R  	mov a,high offset _LC1
 123  0015  0080     E  	mov _uart_printf_2[1],a
 123  0016  2000     E  	call _uart_printf
 123  0017  0003        	ret
 123  0018              _eepromDeviceAddrCpyRead endp
 123  0018              #line 123 "c:\users\user\documents\htk_project\qbell_master_mb_v1_2_f10\hal_eeprom.c"
 123  0018              #pragma debug scope 1 1
 123  0021              @crom	.section 'crom'
 123  0021              _LC2:
 123  0021              	db 045h,045h,050h,052h,04fh,04dh,020h,044h,065h,076h
 123  0026              	db 069h,063h,065h,020h,041h,064h,064h,072h,065h,073h
 123  002B              	db 073h,020h,043h,070h,079h,020h,057h,072h,069h,074h
 123  0030              	db 065h,020h,044h,06fh,06eh,065h,0ah,00h
 123  0034              public _eepromDeviceAddrCpyWrite
 123  0034              #pragma debug scope 7 1
 127  0034              #line 127 "c:\users\user\documents\htk_project\qbell_master_mb_v1_2_f10\hal_eeprom.c"
 127  0000              _eepromDeviceAddrCpyWrite .section 'code'
 127  0000              _eepromDeviceAddrCpyWrite proc
 127  0000  0002[           local _eepromDeviceAddrCpyWrite_2 db 2 dup(?)	; 0,2
            00
"File: hal_eeprom.c  Assembler  Version HGASM0202      Page 6

            ]
 127  0002              #pragma debug variable 8 7 _eepromDeviceAddrCpyWrite_2+0 "i"
 127  0000  0F04        	mov a,4
 127  0001  0080     R  	mov _eepromDeviceAddrCpyWrite_2[1],a
 129  0002              #line 129 "c:\users\user\documents\htk_project\qbell_master_mb_v1_2_f10\hal_eeprom.c"
 129  0002  0F05        	mov a,5
 129  0003  0080     R  	mov _eepromDeviceAddrCpyWrite_2[0],a
 129  0004              _L17:
 130  0004              #line 130 "c:\users\user\documents\htk_project\qbell_master_mb_v1_2_f10\hal_eeprom.c"
 130  0004  0F00     E  	mov a,low (offset _intF+1)
 130  0005  0300     R  	add a,_eepromDeviceAddrCpyWrite_2[0]
 130  0006  0083        	mov mp,a
 130  0007  0F00     E  	mov a,high (offset _intF+1)
 130  0008  1F04        	clr sbp
 130  0009  1384        	adcm a,sbp
 130  000A  2000     E  	call _Crom2Prom
 130  000B  0080     R  	mov _eeprom_write_2[0],a
 130  000C  0700     R  	mov a,_eepromDeviceAddrCpyWrite_2[0]
 130  000D  2000     R  	call _eeprom_write
 129  000E              #line 129 "c:\users\user\documents\htk_project\qbell_master_mb_v1_2_f10\hal_eeprom.c"
 129  000E  1480     R  	inc _eepromDeviceAddrCpyWrite_2[0]
 129  000F  1780     R  	sdz _eepromDeviceAddrCpyWrite_2[1]
 129  0010  2800     R  	jmp _L17
 131  0011              #line 131 "c:\users\user\documents\htk_project\qbell_master_mb_v1_2_f10\hal_eeprom.c"
 131  0011  0F00     R  	mov a,low offset _LC2
 131  0012  0080     E  	mov _uart_printf_2[0],a
 131  0013  0F00     R  	mov a,high offset _LC2
 131  0014  0080     E  	mov _uart_printf_2[1],a
 131  0015  2000     E  	call _uart_printf
 131  0016  0003        	ret
 131  0017              _eepromDeviceAddrCpyWrite endp
 131  0017              #line 131 "c:\users\user\documents\htk_project\qbell_master_mb_v1_2_f10\hal_eeprom.c"
 131  0017              #pragma debug scope 1 1
 131  0017              public _eepromDeviceAddrCpyAckRead
 131  0017              #pragma debug scope 8 1
 135  0017              #line 135 "c:\users\user\documents\htk_project\qbell_master_mb_v1_2_f10\hal_eeprom.c"
 135  0000              _eepromDeviceAddrCpyAckRead .section 'code'
 135  0000              _eepromDeviceAddrCpyAckRead proc
 136  0000              #line 136 "c:\users\user\documents\htk_project\qbell_master_mb_v1_2_f10\hal_eeprom.c"
 136  0000  0F04        	mov a,4
 136  0001  2000     R  	call _eeprom_read
 136  0002  0080     E  	mov ra,a
 136  0003  0700     E  	mov a,ra
 136  0004  0080     E  	mov _intF[32],a
 138  0005              #line 138 "c:\users\user\documents\htk_project\qbell_master_mb_v1_2_f10\hal_eeprom.c"
 138  0005  0700     E  	mov a,ra
 138  0006  0003        	ret
 138  0007              _eepromDeviceAddrCpyAckRead endp
 138  0007              #line 138 "c:\users\user\documents\htk_project\qbell_master_mb_v1_2_f10\hal_eeprom.c"
 138  0007              #pragma debug scope 1 1
 138  0034              @crom	.section 'crom'
 138  0034              _LC3:
 138  0034              	db 045h,045h,050h,052h,04fh,04dh,020h,044h,065h,076h
 138  0039              	db 069h,063h,065h,020h,041h,064h,064h,072h,065h,073h
 138  003E              	db 073h,020h,043h,06fh,070h,079h,020h,041h,063h,06bh
 138  0043              	db 020h,057h,072h,069h,074h,065h,020h,044h,06fh,06eh
 138  0048              	db 065h,0ah,00h
 138  004A              public _eepromDeviceAddrCpyAckWrite
 138  004A              #pragma debug scope 9 1
 141  004A              #line 141 "c:\users\user\documents\htk_project\qbell_master_mb_v1_2_f10\hal_eeprom.c"
"File: hal_eeprom.c  Assembler  Version HGASM0202      Page 7

 141  0000              _eepromDeviceAddrCpyAckWrite .section 'code'
 141  0000              _eepromDeviceAddrCpyAckWrite proc
 141  0000  00              local _eepromDeviceAddrCpyAckWrite_2 db 1 dup(?)	; 0,1
 141  0001              #pragma debug variable 8 9 _eepromDeviceAddrCpyAckWrite_2+0 "byteValue"
 142  0001              #line 142 "c:\users\user\documents\htk_project\qbell_master_mb_v1_2_f10\hal_eeprom.c"
 142  0000  0F08        	mov a,8
 142  0001  0080     R  	mov _eeprom_write_2[0],a
 142  0002  0F04        	mov a,4
 142  0003  2000     R  	call _eeprom_write
 143  0004              #line 143 "c:\users\user\documents\htk_project\qbell_master_mb_v1_2_f10\hal_eeprom.c"
 143  0004  0F00     R  	mov a,low offset _LC3
 143  0005  0080     E  	mov _uart_printf_2[0],a
 143  0006  0F00     R  	mov a,high offset _LC3
 143  0007  0080     E  	mov _uart_printf_2[1],a
 143  0008  2000     E  	call _uart_printf
 143  0009  0003        	ret
 143  000A              _eepromDeviceAddrCpyAckWrite endp
 143  000A              #line 143 "c:\users\user\documents\htk_project\qbell_master_mb_v1_2_f10\hal_eeprom.c"
 143  000A              #pragma debug scope 1 1
 143  000A              #pragma debug variable 8 1 ___mp1l "__mp1l" 1
 143  000A              #pragma debug variable 8 1 ___mp1h "__mp1h" 1
 143  000A              #pragma debug struct_end
 143  000A              #pragma debug struct_end
 143  000A              #pragma debug union_end
 143  000A              #pragma debug union_end
 143  000A              #pragma debug variable 43 1 ___intc0 "__intc0" 1
 143  000A              #pragma debug struct_end
 143  000A              #pragma debug struct_end
 143  000A              #pragma debug union_end
 143  000A              #pragma debug union_end
 143  000A              #pragma debug variable 45 1 ___eea "__eea" 1
 143  000A              #pragma debug variable 8 1 ___eed "__eed" 1
 143  000A              #pragma debug struct_end
 143  000A              #pragma debug struct_end
 143  000A              #pragma debug union_end
 143  000A              #pragma debug union_end
 143  000A              #pragma debug variable 47 1 ___eec "__eec" 1
 143  000A              #pragma debug variable 8 1 ___iar1 "__iar1" 1
 143  000A              
 143  000A              ; output external variables
 143  000A              extern _intF:byte
 143  000A              extern _delay_2:byte
 143  000A              extern _delay:near
 143  000A              extern _uart_printf_2:byte
 143  000A              extern _uart_printf:near
 143  000A              
 143  000A              ; 
 143  000A              ; Generated by holtek-gcc v3.19, Tue Oct 18 18:45:22 2022
 143  000A              ; Rebuild 718
 143  000A              ; end of file


        0 Errors, 0