"File: hal_uart.c    Assembler  Version HGASM0202      Page 1


   1  0000              ; Generated by holtek-gcc v3.19, Mon Oct 17 12:39:57 2022
   2  0000              ; 
   3  0000              ; Configuration:
   4  0000              ;       with long instruction
   5  0000              ;       Single ROM, Multi-RAM
   6  0000              ;       bits_per_rom_unit:16
   7  0000              ;       with mp1
   8  0000              ;       with tbhp, address(0x9)
   9  0000              ;          Use tabrd-const
  10  0000              ;       
  11  0000              ; SFR address of long-instruction arch:
  12  0000              ;    mp0 = -1,1,0
  13  0000              ;    mp1 = 4,3,2
  14  0000              ;    mp2 = 14,13,12
  15  0000              ;    tbp = 9,7,8
  16  0000              ;    acc = 5
  17  0000              ;    pcl = 6
  18  0000              ;    status = 10
  19  0000              ;    bp = 11
  20  0000              ;    intc = 17
  21  0000              ;       
  22  0000              ;       
  23  0000              ; use 'tabrdc' instead of 'tabrd'
  24  0000              ;       
  25  0000              
  26  0000              #pragma translator "holtek-gcc 4.6.4" "3.19" "build 20130711"
  27  0000              ; Rebuild 718
  28  0000              
  29  0000              ir equ [2]
  30  0000              mp equ [3]
  31  0000              sbp equ [4]
  32  0000              acc equ [5]
  33  0000              bp equ [11]
  34  0000              tblp equ [7]
  35  0000              tbhp equ [9]
  36  0000              status equ [10]
  37  0000              c equ [10].0
  38  0000              ac equ [10].1
  39  0000              z equ [10].2
  40  0000              ov equ [10].3
  41  0000              cz equ [10].6
  42  0000              sc equ [10].7
  43  0000              intc equ [17]
  44  0000              
  45  0000              extern ra:byte
  46  0000              extern rb:byte
  47  0000              extern rc:byte
  48  0000              extern rd:byte
  49  0000              extern re:byte
  50  0000              extern rf:byte
  51  0000              extern rg:byte
  52  0000              extern rh:byte
  53  0000              extern _Crom2Prom:near
  54  0000              extern _Crom2PromNext:near
  55  0000              
  56  0000              RAMBANK 0 @BITDATASEC, @BITDATASEC1
  57  0000              @HCCINIT	.section 'data'
  58  0000              @HCCINIT0	.section 'data'
  59  0000              @BITDATASEC	 .section 'data'
"File: hal_uart.ASM  Assembler  Version HGASM0202      Page 2

  60  0000              @BITDATASEC1	 .section 'data'
  61  0000              
  62  0000              #pragma debug scope 1 1
  63  0000              	extern __DELAY3:near
  64  0000              	extern __DELAYX3:near
  65  0000              	extern __DELAYX6:near
  66  0000              	extern __DELAYY5:near
  67  0000              	extern __DELAYY3:near
  68  0000              	extern _builtin_holtek_delay_2:byte
  69  0000              @crom	.section 'crom'
  70  0000              _LC0:
  71  0000              	db 07ah,079h,078h,077h,076h,075h,074h,073h,072h,071h
  72  0005              	db 070h,06fh,06eh,06dh,06ch,06bh,06ah,069h,068h,067h
  73  000A              	db 066h,065h,064h,063h,062h,061h,039h,038h,037h,036h
  74  000F              	db 035h,034h,033h,032h,031h,030h,031h,032h,033h,034h
  75  0014              	db 035h,036h,037h,038h,039h,061h,062h,063h,064h,065h
  76  0019              	db 066h,067h,068h,069h,06ah,06bh,06ch,06dh,06eh,06fh
  77  001E              	db 070h,071h,072h,073h,074h,075h,076h,077h,078h,079h
  78  0023              	db 07ah,00h
  79  0024              public _itoa
  80  0024              #pragma debug scope 2 1

  19  0024              #line 19 "c:\users\user\documents\htk_project\qbell_master_mb_v1_2_f10\hal_uart.c"
  19  0000              _itoa .section 'code'
  19  0000              _itoa proc
  19  0000              public _itoa_2
  19  0000  000A[           local _itoa_2 db 10 dup(?)	; 6,4
            00
            ]
  19  000A              #pragma debug variable 11 2 _itoa_2+0 "value"
  19  000A              #pragma debug pointer 42 7 2
  19  000A              #pragma debug pointer 42 7 2
  19  000A              #pragma debug variable 42 2 _itoa_2+2 "result"
  19  000A              #pragma debug variable 11 2 _itoa_2+4 "base"
  21  000A              #line 21 "c:\users\user\documents\htk_project\qbell_master_mb_v1_2_f10\hal_uart.c"
  21  0000  0FFE        	mov a,254
  21  0001  0300     R  	add a,_itoa_2[4]
  21  0002  0080     E  	mov rb,a
  21  0003  0FFF        	mov a,255
  21  0004  1300     R  	adc a,_itoa_2[5]
  21  0005  0080     E  	mov rc,a
  21  0006  0700     R  	mov a,_itoa_2[2]
  21  0007  0080     E  	mov rd,a
  21  0008  0700     R  	mov a,_itoa_2[3]
  21  0009  0080     E  	mov ra,a
  21  000A  0F22        	mov a,34
  21  000B  0200     E  	sub a,rb
  21  000C  0F00        	mov a,0
  21  000D  1200     E  	sbc a,rc
  21  000E  3C0A        	sz c
  21  000F  2800     R  	jmp _L2
  21  0010              #line 21 "c:\users\user\documents\htk_project\qbell_master_mb_v1_2_f10\hal_uart.c"
  21  0010  0700     E  	mov a,rd
  21  0011  0083        	mov mp,a
  21  0012  0700     E  	mov a,ra
  21  0013  0084        	mov sbp,a
  21  0014  0F00        	mov a,0
  21  0015  0082        	mov ir,a
  21  0016  2800     R  	jmp _L3
  21  0017              _L2:
"File: hal_uart.c    Assembler  Version HGASM0202      Page 3

  21  0017  0700     E  	mov a,rd
  21  0018  0080     E  	mov rb,a
  21  0019  0700     E  	mov a,ra
  21  001A  0080     E  	mov rc,a
  21  001B              _L5:
  28  001B              #line 28 "c:\users\user\documents\htk_project\qbell_master_mb_v1_2_f10\hal_uart.c"
  28  001B  0700     R  	mov a,_itoa_2[0]
  28  001C  0080     E  	mov _builtin_holtek_udivmodhi4_2[0],a
  28  001D  0700     R  	mov a,_itoa_2[1]
  28  001E  0080     E  	mov _builtin_holtek_udivmodhi4_2[1],a
  28  001F  0700     R  	mov a,_itoa_2[4]
  28  0020  0080     E  	mov _builtin_holtek_udivmodhi4_2[2],a
  28  0021  0700     R  	mov a,_itoa_2[5]
  28  0022  0080     E  	mov _builtin_holtek_udivmodhi4_2[3],a
  28  0023  2000     E  	call _builtin_holtek_divmodhi4
  28  0024  0700     E  	mov a,_builtin_holtek_udivmodhi4_2[0]
  28  0025  0080     E  	mov rf,a
  28  0026  0700     E  	mov a,_builtin_holtek_udivmodhi4_2[1]
  28  0027  0080     E  	mov rg,a
  29  0028              #line 29 "c:\users\user\documents\htk_project\qbell_master_mb_v1_2_f10\hal_uart.c"
  29  0028  0F01        	mov a,1
  29  0029  0300     E  	add a,rb
  29  002A  0080     R  	mov _itoa_2[8],a
  29  002B  0F00        	mov a,0
  29  002C  1300     E  	adc a,rc
  29  002D  0080     R  	mov _itoa_2[9],a
  29  002E  0700     E  	mov a,rf  
  29  002F  0080     E  	mov _builtin_holtek_mulhi3_2[0],a  
  29  0030  0700     E  	mov a,rg  
  29  0031  0080     E  	mov _builtin_holtek_mulhi3_2[1],a
  29  0032  0700     R  	mov a,_itoa_2[4]  
  29  0033  0080     E  	mov _builtin_holtek_mulhi3_2[2],a  
  29  0034  0700     R  	mov a,_itoa_2[5]  
  29  0035  0080     E  	mov _builtin_holtek_mulhi3_2[3],a
  29  0036  2000     E  	call _builtin_holtek_mulhi3
  29  0037  0700     E  	mov a,_builtin_holtek_mulhi3_2[4]  
  29  0038  0080     R  	mov _itoa_2[6],a  
  29  0039  0700     E  	mov a,_builtin_holtek_mulhi3_2[5]  
  29  003A  0080     R  	mov _itoa_2[7],a
  29  003B  0700     R  	mov a,_itoa_2[0]
  29  003C  0200     R  	sub a,_itoa_2[6]
  29  003D  0080     E  	mov rd,a
  29  003E  0700     R  	mov a,_itoa_2[1]
  29  003F  1200     R  	sbc a,_itoa_2[7]
  29  0040  0080     E  	mov re,a
  29  0041  0F00     R  	mov a,low (offset _LC0+35)
  29  0042  0300     E  	add a,rd
  29  0043  0083        	mov mp,a
  29  0044  0F00     R  	mov a,high (offset _LC0+35)
  29  0045  1300     E  	adc a,re
  29  0046  0084        	mov sbp,a
  29  0047  2000     E  	call _Crom2Prom
  29  0048  0080     E  	mov ra,a
  29  0049  0700     E  	mov a,rb
  29  004A  0083        	mov mp,a
  29  004B  0700     E  	mov a,rc
  29  004C  0084        	mov sbp,a
  29  004D  0700     E  	mov a,ra
  29  004E  0082        	mov ir,a
  30  004F              #line 30 "c:\users\user\documents\htk_project\qbell_master_mb_v1_2_f10\hal_uart.c"
"File: hal_uart.c    Assembler  Version HGASM0202      Page 4

  30  004F  0700     E  	mov a,rf
  30  0050  0500     E  	or a,rg
  30  0051  3D0A        	sz z
  30  0052  2800     R  	jmp _L4
  29  0053              #line 29 "c:\users\user\documents\htk_project\qbell_master_mb_v1_2_f10\hal_uart.c"
  29  0053  0700     R  	mov a,_itoa_2[8]
  29  0054  0080     E  	mov rb,a
  29  0055  0700     R  	mov a,_itoa_2[9]
  29  0056  0080     E  	mov rc,a
  28  0057              #line 28 "c:\users\user\documents\htk_project\qbell_master_mb_v1_2_f10\hal_uart.c"
  28  0057  0700     E  	mov a,rf
  28  0058  0080     R  	mov _itoa_2[0],a
  28  0059  0700     E  	mov a,rg
  28  005A  0080     R  	mov _itoa_2[1],a
  28  005B  2800     R  	jmp _L5
  28  005C              _L4:
  33  005C              #line 33 "c:\users\user\documents\htk_project\qbell_master_mb_v1_2_f10\hal_uart.c"
  33  005C  3800     R  	snz _itoa_2[1].7
  33  005D  2800     R  	jmp _L6
  33  005E  0F02        	mov a,2
  33  005F  0300     E  	add a,rb
  33  0060  0080     R  	mov _itoa_2[8],a
  33  0061  0F00        	mov a,0
  33  0062  1300     E  	adc a,rc
  33  0063  0080     R  	mov _itoa_2[9],a
  33  0064  0F01        	mov a,1
  33  0065  0300     E  	add a,rb
  33  0066  0083        	mov mp,a
  33  0067  0F00        	mov a,0
  33  0068  1300     E  	adc a,rc
  33  0069  0084        	mov sbp,a
  33  006A  0F2D        	mov a,45
  33  006B  0082        	mov ir,a
  33  006C              _L6:
  34  006C              #line 34 "c:\users\user\documents\htk_project\qbell_master_mb_v1_2_f10\hal_uart.c"
  34  006C  0700     R  	mov a,_itoa_2[8]
  34  006D  0083        	mov mp,a
  34  006E  0700     R  	mov a,_itoa_2[9]
  34  006F  0084        	mov sbp,a
  34  0070  0F00        	mov a,0
  34  0071  0082        	mov ir,a
  34  0072  0703        	mov a,mp
  34  0073  0080     E  	mov rb,a
  34  0074  0704        	mov a,sbp
  34  0075  0080     E  	mov rc,a
  34  0076  0FFF        	mov a,255
  34  0077  0380     E  	addm a,rb
  34  0078  0FFF        	mov a,255
  34  0079  1380     E  	adcm a,rc
  34  007A  0700     R  	mov a,_itoa_2[2]
  34  007B  0080     E  	mov rd,a
  34  007C  0700     R  	mov a,_itoa_2[3]
  34  007D  0080     E  	mov re,a
  34  007E              _L7:
  35  007E              #line 35 "c:\users\user\documents\htk_project\qbell_master_mb_v1_2_f10\hal_uart.c"
  35  007E  0700     E  	mov a,rd
  35  007F  0200     E  	sub a,rb
  35  0080  0700     E  	mov a,re
  35  0081  1200     E  	sbc a,rc
  35  0082  3C0A        	sz c
"File: hal_uart.c    Assembler  Version HGASM0202      Page 5

  35  0083  2800     R  	jmp _L3
  36  0084              #line 36 "c:\users\user\documents\htk_project\qbell_master_mb_v1_2_f10\hal_uart.c"
  36  0084  0700     E  	mov a,rb
  36  0085  0083        	mov mp,a
  36  0086  0700     E  	mov a,rc
  36  0087  0084        	mov sbp,a
  36  0088  2000     E  	call _Crom2Prom
  36  0089  0080     E  	mov ra,a
  37  008A              #line 37 "c:\users\user\documents\htk_project\qbell_master_mb_v1_2_f10\hal_uart.c"
  37  008A  0700     E  	mov a,rd
  37  008B  0083        	mov mp,a
  37  008C  0700     E  	mov a,re
  37  008D  0084        	mov sbp,a
  37  008E  2000     E  	call _Crom2Prom
  37  008F  0080     E  	mov rf,a
  37  0090  0700     E  	mov a,rb
  37  0091  0083        	mov mp,a
  37  0092  0700     E  	mov a,rc
  37  0093  0084        	mov sbp,a
  37  0094  0700     E  	mov a,rf
  37  0095  0082        	mov ir,a
  38  0096              #line 38 "c:\users\user\documents\htk_project\qbell_master_mb_v1_2_f10\hal_uart.c"
  38  0096  0700     E  	mov a,rd
  38  0097  0083        	mov mp,a
  38  0098  0700     E  	mov a,re
  38  0099  0084        	mov sbp,a
  38  009A  0700     E  	mov a,ra
  38  009B  0082        	mov ir,a
  38  009C  0FFF        	mov a,255
  38  009D  0380     E  	addm a,rb
  38  009E  0FFF        	mov a,255
  38  009F  1380     E  	adcm a,rc
  38  00A0  1480     E  	inc rd
  38  00A1  3D0A        	sz z
  38  00A2  1480     E  	inc re
  38  00A3  2800     R  	jmp _L7
  38  00A4              _L3:
  41  00A4              #line 41 "c:\users\user\documents\htk_project\qbell_master_mb_v1_2_f10\hal_uart.c"
  41  00A4  0700     R  	mov a,_itoa_2[2]
  41  00A5  0080     E  	mov ra,a
  41  00A6  0700     R  	mov a,_itoa_2[3]
  41  00A7  0080     E  	mov rb,a
  41  00A8  0003        	ret
  41  00A9              _itoa endp
  41  00A9              #line 41 "c:\users\user\documents\htk_project\qbell_master_mb_v1_2_f10\hal_uart.c"
  41  00A9              #pragma debug scope 1 1
  41  00A9              ___ucr2 equ [87]
  41  00A9              ___intc2 equ [19]
  41  00A9              public _uart_int_init
  41  00A9              #pragma debug scope 3 1
  84  00A9              #line 84 "c:\users\user\documents\htk_project\qbell_master_mb_v1_2_f10\hal_uart.c"
  84  0000              _uart_int_init .section 'code'
  84  0000              _uart_int_init proc
  85  0000              #line 85 "c:\users\user\documents\htk_project\qbell_master_mb_v1_2_f10\hal_uart.c"
  85  0000  3157        	set [87].2
  86  0001              #line 86 "c:\users\user\documents\htk_project\qbell_master_mb_v1_2_f10\hal_uart.c"
  86  0001  31D7        	set [87].3
  87  0002              #line 87 "c:\users\user\documents\htk_project\qbell_master_mb_v1_2_f10\hal_uart.c"
  87  0002  34D7        	clr [87].1
  88  0003              #line 88 "c:\users\user\documents\htk_project\qbell_master_mb_v1_2_f10\hal_uart.c"
"File: hal_uart.c    Assembler  Version HGASM0202      Page 6

  88  0003  3457        	clr [87].0
  89  0004              #line 89 "c:\users\user\documents\htk_project\qbell_master_mb_v1_2_f10\hal_uart.c"
  89  0004  3193        	set [19].3
  90  0005              #line 90 "c:\users\user\documents\htk_project\qbell_master_mb_v1_2_f10\hal_uart.c"
  90  0005  3793        	clr [19].7
  90  0006  0003        	ret
  90  0007              _uart_int_init endp
  90  0007              #line 90 "c:\users\user\documents\htk_project\qbell_master_mb_v1_2_f10\hal_uart.c"
  90  0007              #pragma debug scope 1 1
  90  0007              ___pdpu equ [84]
  90  0007              ___pdc equ [83]
  90  0007              ___pds0 equ [97]
  90  0007              ___ifs equ [81]
  90  0007              ___ucr1 equ [86]
  90  0007              ___brg equ [88]
  90  0007              public _uart_prot_init
  90  0007              #pragma debug scope 4 1
  56  0007              #line 56 "c:\users\user\documents\htk_project\qbell_master_mb_v1_2_f10\hal_uart.c"
  56  0000              _uart_prot_init .section 'code'
  56  0000              _uart_prot_init proc
  57  0000              #line 57 "c:\users\user\documents\htk_project\qbell_master_mb_v1_2_f10\hal_uart.c"
  57  0000  30D4        	set [84].1
  58  0001              #line 58 "c:\users\user\documents\htk_project\qbell_master_mb_v1_2_f10\hal_uart.c"
  58  0001  30D3        	set [83].1
  59  0002              #line 59 "c:\users\user\documents\htk_project\qbell_master_mb_v1_2_f10\hal_uart.c"
  59  0002  3553        	clr [83].2
  61  0003              #line 61 "c:\users\user\documents\htk_project\qbell_master_mb_v1_2_f10\hal_uart.c"
  61  0003  0F14        	mov a,20
  61  0004  05E1        	orm a,[97]
  62  0005              #line 62 "c:\users\user\documents\htk_project\qbell_master_mb_v1_2_f10\hal_uart.c"
  62  0005  3451        	clr [81].0
  64  0006              #line 64 "c:\users\user\documents\htk_project\qbell_master_mb_v1_2_f10\hal_uart.c"
  64  0006  0F80        	mov a,128
  64  0007  00D6        	mov [86],a
  65  0008              #line 65 "c:\users\user\documents\htk_project\qbell_master_mb_v1_2_f10\hal_uart.c"
  65  0008  0FC0        	mov a,192
  65  0009  00D7        	mov [87],a
  66  000A              #line 66 "c:\users\user\documents\htk_project\qbell_master_mb_v1_2_f10\hal_uart.c"
  66  000A  0F0C        	mov a,12
  66  000B  00D8        	mov [88],a
  68  000C              #line 68 "c:\users\user\documents\htk_project\qbell_master_mb_v1_2_f10\hal_uart.c"
  68  000C  2000     R  	call _uart_int_init
  68  000D  0003        	ret
  68  000E              _uart_prot_init endp
  68  000E              #line 68 "c:\users\user\documents\htk_project\qbell_master_mb_v1_2_f10\hal_uart.c"
  68  000E              #pragma debug scope 1 1
  68  000E              public _uart_send
  68  000E              #pragma debug scope 5 1
 107  000E              #line 107 "c:\users\user\documents\htk_project\qbell_master_mb_v1_2_f10\hal_uart.c"
 107  0000              _uart_send .section 'code'
 107  0000              _uart_send proc
 107  0000  00              local _uart_send_2 db 1 dup(?)	; 0,1
 107  0001              #pragma debug variable 8 5 _uart_send_2+0 "data"
 107  0000  0003        	ret
 107  0001              _uart_send endp
 107  0001              #line 107 "c:\users\user\documents\htk_project\qbell_master_mb_v1_2_f10\hal_uart.c"
 107  0001              #pragma debug scope 1 1
 107  0001              ___usr equ [85]
 107  0001              ___txr_rxr equ [89]
 107  0001              public _uart_receive
"File: hal_uart.c    Assembler  Version HGASM0202      Page 7

 107  0001              #pragma debug scope 6 1
 128  0001              #line 128 "c:\users\user\documents\htk_project\qbell_master_mb_v1_2_f10\hal_uart.c"
 128  0000              _uart_receive .section 'code'
 128  0000              _uart_receive proc
 128  0000              _L15:
 130  0000              #line 130 "c:\users\user\documents\htk_project\qbell_master_mb_v1_2_f10\hal_uart.c"
 130  0000  39D5        	snz [85].3
 130  0001  2800     R  	jmp _L15
 131  0002              #line 131 "c:\users\user\documents\htk_project\qbell_master_mb_v1_2_f10\hal_uart.c"
 131  0002  0759        	mov a,[89]
 131  0003  0080     E  	mov ra,a
 133  0004              #line 133 "c:\users\user\documents\htk_project\qbell_master_mb_v1_2_f10\hal_uart.c"
 133  0004  0700     E  	mov a,ra
 133  0005  0003        	ret
 133  0006              _uart_receive endp
 133  0006              #line 133 "c:\users\user\documents\htk_project\qbell_master_mb_v1_2_f10\hal_uart.c"
 133  0006              #pragma debug scope 1 1
 133  0006              public _uart_printf
 133  0006              #pragma debug scope 7 1
 148  0006              #line 148 "c:\users\user\documents\htk_project\qbell_master_mb_v1_2_f10\hal_uart.c"
 148  0000              _uart_printf .section 'code'
 148  0000              _uart_printf proc
 148  0000              public _uart_printf_2
 148  0000  0002[           local _uart_printf_2 db 2 dup(?)	; 2,0
            00
            ]
 148  0002              #pragma debug pointer 43 7 7
 148  0002              #pragma debug pointer 43 7 7
 148  0002              #pragma debug variable 43 7 _uart_printf_2+0 "payload"
 148  0000  0003        	ret
 148  0001              _uart_printf endp
 148  0001              #line 148 "c:\users\user\documents\htk_project\qbell_master_mb_v1_2_f10\hal_uart.c"
 148  0001              #pragma debug scope 1 1
 148  0001              public _uart_int
 148  0001              #pragma debug scope 8 1
 167  0001              #line 167 "c:\users\user\documents\htk_project\qbell_master_mb_v1_2_f10\hal_uart.c"
 167  0000              _uart_int .section 'code'
 167  0000              _uart_int proc
 167  0000              public _uart_int_2
 167  0000  0002[           local _uart_int_2 db 2 dup(?)	; 2,0
            00
            ]
 167  0002              #pragma debug variable 10 8 _uart_int_2+0 "value"
 167  0000  0003        	ret
 167  0001              _uart_int endp
 167  0001              #line 167 "c:\users\user\documents\htk_project\qbell_master_mb_v1_2_f10\hal_uart.c"
 167  0001              #pragma debug scope 1 1
 167  0001              public _uart_enable
 167  0001              #pragma debug scope 9 1
 178  0001              #line 178 "c:\users\user\documents\htk_project\qbell_master_mb_v1_2_f10\hal_uart.c"
 178  0000              _uart_enable .section 'code'
 178  0000              _uart_enable proc
 179  0000              #line 179 "c:\users\user\documents\htk_project\qbell_master_mb_v1_2_f10\hal_uart.c"
 179  0000  2000     R  	call _uart_prot_init
 179  0001  0003        	ret
 179  0002              _uart_enable endp
 179  0002              #line 179 "c:\users\user\documents\htk_project\qbell_master_mb_v1_2_f10\hal_uart.c"
 179  0002              #pragma debug scope 1 1
 179  0002              public _uart_disable
 179  0002              #pragma debug scope 10 1
"File: hal_uart.c    Assembler  Version HGASM0202      Page 8

 183  0002              #line 183 "c:\users\user\documents\htk_project\qbell_master_mb_v1_2_f10\hal_uart.c"
 183  0000              _uart_disable .section 'code'
 183  0000              _uart_disable proc
 184  0000              #line 184 "c:\users\user\documents\htk_project\qbell_master_mb_v1_2_f10\hal_uart.c"
 184  0000  37D6        	clr [86].7
 185  0001              #line 185 "c:\users\user\documents\htk_project\qbell_master_mb_v1_2_f10\hal_uart.c"
 185  0001  37D7        	clr [87].7
 186  0002              #line 186 "c:\users\user\documents\htk_project\qbell_master_mb_v1_2_f10\hal_uart.c"
 186  0002  3757        	clr [87].6
 187  0003              #line 187 "c:\users\user\documents\htk_project\qbell_master_mb_v1_2_f10\hal_uart.c"
 187  0003  3556        	clr [86].2
 188  0004              #line 188 "c:\users\user\documents\htk_project\qbell_master_mb_v1_2_f10\hal_uart.c"
 188  0004  3555        	clr [85].2
 189  0005              #line 189 "c:\users\user\documents\htk_project\qbell_master_mb_v1_2_f10\hal_uart.c"
 189  0005  3655        	clr [85].4
 190  0006              #line 190 "c:\users\user\documents\htk_project\qbell_master_mb_v1_2_f10\hal_uart.c"
 190  0006  36D5        	clr [85].5
 191  0007              #line 191 "c:\users\user\documents\htk_project\qbell_master_mb_v1_2_f10\hal_uart.c"
 191  0007  37D5        	clr [85].7
 192  0008              #line 192 "c:\users\user\documents\htk_project\qbell_master_mb_v1_2_f10\hal_uart.c"
 192  0008  3755        	clr [85].6
 193  0009              #line 193 "c:\users\user\documents\htk_project\qbell_master_mb_v1_2_f10\hal_uart.c"
 193  0009  34D4        	clr [84].1
 194  000A              #line 194 "c:\users\user\documents\htk_project\qbell_master_mb_v1_2_f10\hal_uart.c"
 194  000A  1F61        	clr [97]
 194  000B  0003        	ret
 194  000C              _uart_disable endp
 194  000C              #line 194 "c:\users\user\documents\htk_project\qbell_master_mb_v1_2_f10\hal_uart.c"
 194  000C              #pragma debug scope 1 1
   5  000C              #line 5 "c:\users\user\documents\htk_project\qbell_master_mb_v1_2_f10\hal_uart.c"
   5  000C              public _temPtr
   5  0000              @HCCINIT0_temPtr .section 'data'
   5  0000  0002[       _temPtr	db 2 dup(0)
            00
            ]
   5  0002              #pragma debug pointer 44 7 1
   5  0002              #pragma debug pointer 44 7 1
   5  0002              #pragma debug variable 44 1 _temPtr "temPtr"
   5  0002              
   5  0000              @HCCINIT .section 'data'
   3  0000              #line 3 "c:\users\user\documents\htk_project\qbell_master_mb_v1_2_f10\hal_uart.c"
   3  0000              public _ReceiveData
   3  0000              @HCCINIT0_ReceiveData .section 'data'
   3  0000              _ReceiveData	db 0
   3  0001              #pragma debug variable 8 1 _ReceiveData "ReceiveData"
   3  0001              
   3  0000              @HCCINIT .section 'data'
   3  0000              #pragma debug struct_end
   3  0000              #pragma debug struct_end
   3  0000              #pragma debug union_end
   3  0000              #pragma debug union_end
   3  0000              #pragma debug variable 46 1 ___intc2 "__intc2" 1
   3  0000              #pragma debug struct_end
   3  0000              #pragma debug struct_end
   3  0000              #pragma debug union_end
   3  0000              #pragma debug union_end
   3  0000              #pragma debug variable 48 1 ___ifs "__ifs" 1
   3  0000              #pragma debug struct_end
   3  0000              #pragma debug struct_end
   3  0000              #pragma debug union_end
"File: hal_uart.c    Assembler  Version HGASM0202      Page 9

   3  0000              #pragma debug union_end
   3  0000              #pragma debug variable 50 1 ___pdc "__pdc" 1
   3  0000              #pragma debug struct_end
   3  0000              #pragma debug struct_end
   3  0000              #pragma debug union_end
   3  0000              #pragma debug union_end
   3  0000              #pragma debug variable 52 1 ___pdpu "__pdpu" 1
   3  0000              #pragma debug struct_end
   3  0000              #pragma debug struct_end
   3  0000              #pragma debug union_end
   3  0000              #pragma debug union_end
   3  0000              #pragma debug variable 54 1 ___usr "__usr" 1
   3  0000              #pragma debug struct_end
   3  0000              #pragma debug struct_end
   3  0000              #pragma debug union_end
   3  0000              #pragma debug union_end
   3  0000              #pragma debug variable 56 1 ___ucr1 "__ucr1" 1
   3  0000              #pragma debug struct_end
   3  0000              #pragma debug struct_end
   3  0000              #pragma debug union_end
   3  0000              #pragma debug union_end
   3  0000              #pragma debug variable 58 1 ___ucr2 "__ucr2" 1
   3  0000              #pragma debug struct_end
   3  0000              #pragma debug struct_end
   3  0000              #pragma debug union_end
   3  0000              #pragma debug union_end
   3  0000              #pragma debug variable 60 1 ___brg "__brg" 1
   3  0000              #pragma debug struct_end
   3  0000              #pragma debug struct_end
   3  0000              #pragma debug union_end
   3  0000              #pragma debug union_end
   3  0000              #pragma debug variable 62 1 ___txr_rxr "__txr_rxr" 1
   3  0000              #pragma debug struct_end
   3  0000              #pragma debug struct_end
   3  0000              #pragma debug union_end
   3  0000              #pragma debug union_end
   3  0000              #pragma debug variable 64 1 ___pds0 "__pds0" 1
   3  0000              extern _builtin_holtek_divmodhi4:near
   3  0000              extern _builtin_holtek_udivmodhi4_2:byte
   3  0000              extern _builtin_holtek_udivmodhi4:near
   3  0000              extern _builtin_holtek_mulhi3_2:byte
   3  0000              extern _builtin_holtek_mulhi3:near
   3  0000              
   3  0000              ; 
   3  0000              ; Generated by holtek-gcc v3.19, Mon Oct 17 12:39:57 2022
   3  0000              ; Rebuild 718
   3  0000              ; end of file


        0 Errors, 0