"File: hal_rf.c      Assembler  Version HGASM0202      Page 1


   1  0000              ; Generated by holtek-gcc v3.19, Mon Oct 17 12:40:02 2022
   2  0000              ; 
   3  0000              ; Configuration:
   4  0000              ;       with long instruction
   5  0000              ;       Single ROM, Multi-RAM
   6  0000              ;       bits_per_rom_unit:16
   7  0000              ;       with mp1
   8  0000              ;       with tbhp, address(0x9)
   9  0000              ;          Use tabrd-const
  10  0000              ;       
  11  0000              ; SFR address of long-instruction arch:
  12  0000              ;    mp0 = -1,1,0
  13  0000              ;    mp1 = 4,3,2
  14  0000              ;    mp2 = 14,13,12
  15  0000              ;    tbp = 9,7,8
  16  0000              ;    acc = 5
  17  0000              ;    pcl = 6
  18  0000              ;    status = 10
  19  0000              ;    bp = 11
  20  0000              ;    intc = 17
  21  0000              ;       
  22  0000              ;       
  23  0000              ; use 'tabrdc' instead of 'tabrd'
  24  0000              ;       
  25  0000              
  26  0000              #pragma translator "holtek-gcc 4.6.4" "3.19" "build 20130711"
  27  0000              ; Rebuild 718
  28  0000              
  29  0000              ir equ [2]
  30  0000              mp equ [3]
  31  0000              sbp equ [4]
  32  0000              acc equ [5]
  33  0000              bp equ [11]
  34  0000              tblp equ [7]
  35  0000              tbhp equ [9]
  36  0000              status equ [10]
  37  0000              c equ [10].0
  38  0000              ac equ [10].1
  39  0000              z equ [10].2
  40  0000              ov equ [10].3
  41  0000              cz equ [10].6
  42  0000              sc equ [10].7
  43  0000              intc equ [17]
  44  0000              
  45  0000              extern ra:byte
  46  0000              extern rb:byte
  47  0000              extern rc:byte
  48  0000              extern rd:byte
  49  0000              extern re:byte
  50  0000              extern rf:byte
  51  0000              extern rg:byte
  52  0000              extern rh:byte
  53  0000              extern _Crom2Prom:near
  54  0000              extern _Crom2PromNext:near
  55  0000              
  56  0000              RAMBANK 0 @BITDATASEC, @BITDATASEC1
  57  0000              @HCCINIT	.section 'data'
  58  0000              @HCCINIT0	.section 'data'
  59  0000              @BITDATASEC	 .section 'data'
"File: hal_rf.ASM    Assembler  Version HGASM0202      Page 2

  60  0000              @BITDATASEC1	 .section 'data'
  61  0000              
  62  0000              #pragma debug scope 1 1
  63  0000              	extern __DELAY3:near
  64  0000              	extern __DELAYX3:near
  65  0000              	extern __DELAYX6:near
  66  0000              	extern __DELAYY5:near
  67  0000              	extern __DELAYY3:near
  68  0000              	extern _builtin_holtek_delay_2:byte
  69  0000              ___mp1h equ [4]
  70  0000              ___mp1l equ [3]
  71  0000              ___tblp equ [7]
  72  0000              ___iar1 equ [2]
  73  0000              public _fun_RamInit
  74  0000              #pragma debug scope 2 1

  72  0000              #line 72 "c:\users\user\documents\htk_project\qbell_master_mb_v1_2_f10\hal_rf.c"
  72  0000              _fun_RamInit .section 'code'
  72  0000              _fun_RamInit proc
  73  0000              #line 73 "c:\users\user\documents\htk_project\qbell_master_mb_v1_2_f10\hal_rf.c"
  73  0000  1F04        	clr [4]
  73  0001              _L2:
  73  0001              #line 73 "c:\users\user\documents\htk_project\qbell_master_mb_v1_2_f10\hal_rf.c"
  73  0001  0F03        	mov a,3
  73  0002  0204        	sub a,[4]
  73  0003  380A        	snz c
  73  0004  2800     R  	jmp _L7
  75  0005              #line 75 "c:\users\user\documents\htk_project\qbell_master_mb_v1_2_f10\hal_rf.c"
  75  0005  0F80        	mov a,128
  75  0006  0083        	mov [3],a
  76  0007              #line 76 "c:\users\user\documents\htk_project\qbell_master_mb_v1_2_f10\hal_rf.c"
  76  0007  0F80        	mov a,128
  76  0008  0087        	mov [7],a
  76  0009              _L3:
  76  0009  1E07        	snz [7]
  76  000A  2800     R  	jmp _L8
  78  000B              #line 78 "c:\users\user\documents\htk_project\qbell_master_mb_v1_2_f10\hal_rf.c"
  78  000B  1F02        	clr [2]
  79  000C              #line 79 "c:\users\user\documents\htk_project\qbell_master_mb_v1_2_f10\hal_rf.c"
  79  000C  1483        	inc [3]
  76  000D              #line 76 "c:\users\user\documents\htk_project\qbell_master_mb_v1_2_f10\hal_rf.c"
  76  000D  1587        	dec [7]
  76  000E  2800     R  	jmp _L3
  76  000F              _L8:
  73  000F              #line 73 "c:\users\user\documents\htk_project\qbell_master_mb_v1_2_f10\hal_rf.c"
  73  000F  1484        	inc [4]
  73  0010  2800     R  	jmp _L2
  73  0011              _L7:
  82  0011              #line 82 "c:\users\user\documents\htk_project\qbell_master_mb_v1_2_f10\hal_rf.c"
  82  0011  1F04        	clr [4]
  82  0012  0003        	ret
  82  0013              _fun_RamInit endp
  82  0013              #line 82 "c:\users\user\documents\htk_project\qbell_master_mb_v1_2_f10\hal_rf.c"
  82  0013              #pragma debug scope 1 1
  82  0013              ___papu equ [22]
  82  0013              ___pbpu equ [39]
  82  0013              ___pcc equ [66]
  82  0013              ___pcpu equ [67]
  82  0013              ___pdc equ [83]
  82  0013              ___pdpu equ [84]
"File: hal_rf.c      Assembler  Version HGASM0202      Page 3

  82  0013              ___psc0r equ [102]
  82  0013              ___scc equ [25]
  82  0013              ___hircc equ [28]
  82  0013              ___wdtc equ [26]
  82  0013              ___tb0c equ [27]
  82  0013              ___intc1 equ [18]
  82  0013              ___integ equ [16]
  82  0013              ___pac equ [21]
  82  0013              ___ifs equ [81]
  82  0013              ___intc0 equ [17]
  82  0013              public _Sys_init
  82  0013              #pragma debug scope 3 1
  25  0013              #line 25 "c:\users\user\documents\htk_project\qbell_master_mb_v1_2_f10\hal_rf.c"
  25  0000              _Sys_init .section 'code'
  25  0000              _Sys_init proc
  26  0000              #line 26 "c:\users\user\documents\htk_project\qbell_master_mb_v1_2_f10\hal_rf.c"
  26  0000  1F96        	set [22]
  27  0001              #line 27 "c:\users\user\documents\htk_project\qbell_master_mb_v1_2_f10\hal_rf.c"
  27  0001  1FA7        	set [39]
  28  0002              #line 28 "c:\users\user\documents\htk_project\qbell_master_mb_v1_2_f10\hal_rf.c"
  28  0002  1FC2        	set [66]
  29  0003              #line 29 "c:\users\user\documents\htk_project\qbell_master_mb_v1_2_f10\hal_rf.c"
  29  0003  1FC3        	set [67]
  30  0004              #line 30 "c:\users\user\documents\htk_project\qbell_master_mb_v1_2_f10\hal_rf.c"
  30  0004  1FD3        	set [83]
  31  0005              #line 31 "c:\users\user\documents\htk_project\qbell_master_mb_v1_2_f10\hal_rf.c"
  31  0005  1FD4        	set [84]
  33  0006              #line 33 "c:\users\user\documents\htk_project\qbell_master_mb_v1_2_f10\hal_rf.c"
  33  0006  2000     R  	call _fun_RamInit
  36  0007              #line 36 "c:\users\user\documents\htk_project\qbell_master_mb_v1_2_f10\hal_rf.c"
  36  0007  0F02        	mov a,2
  36  0008  00E6        	mov [102],a
  37  0009              #line 37 "c:\users\user\documents\htk_project\qbell_master_mb_v1_2_f10\hal_rf.c"
  37  0009  1F19        	clr [25]
  38  000A              #line 38 "c:\users\user\documents\htk_project\qbell_master_mb_v1_2_f10\hal_rf.c"
  38  000A  0F01        	mov a,1
  38  000B  009C        	mov [28],a
  40  000C              #line 40 "c:\users\user\documents\htk_project\qbell_master_mb_v1_2_f10\hal_rf.c"
  40  000C  0F57        	mov a,87
  40  000D  009A        	mov [26],a
  46  000E              #line 46 "c:\users\user\documents\htk_project\qbell_master_mb_v1_2_f10\hal_rf.c"
  46  000E  0F02        	mov a,2
  46  000F  00E6        	mov [102],a
  47  0010              #line 47 "c:\users\user\documents\htk_project\qbell_master_mb_v1_2_f10\hal_rf.c"
  47  0010  1F1B        	clr [27]
  48  0011              #line 48 "c:\users\user\documents\htk_project\qbell_master_mb_v1_2_f10\hal_rf.c"
  48  0011  339B        	set [27].7
  49  0012              #line 49 "c:\users\user\documents\htk_project\qbell_master_mb_v1_2_f10\hal_rf.c"
  49  0012  3192        	set [18].3
  52  0013              #line 52 "c:\users\user\documents\htk_project\qbell_master_mb_v1_2_f10\hal_rf.c"
  52  0013  3090        	set [16].1
  53  0014              #line 53 "c:\users\user\documents\htk_project\qbell_master_mb_v1_2_f10\hal_rf.c"
  53  0014  3410        	clr [16].0
  54  0015              #line 54 "c:\users\user\documents\htk_project\qbell_master_mb_v1_2_f10\hal_rf.c"
  54  0015  3095        	set [21].1
  55  0016              #line 55 "c:\users\user\documents\htk_project\qbell_master_mb_v1_2_f10\hal_rf.c"
  55  0016  3096        	set [22].1
  56  0017              #line 56 "c:\users\user\documents\htk_project\qbell_master_mb_v1_2_f10\hal_rf.c"
  56  0017  3251        	set [81].4
  57  0018              #line 57 "c:\users\user\documents\htk_project\qbell_master_mb_v1_2_f10\hal_rf.c"
"File: hal_rf.c      Assembler  Version HGASM0202      Page 4

  57  0018  3091        	set [17].1
  59  0019              #line 59 "c:\users\user\documents\htk_project\qbell_master_mb_v1_2_f10\hal_rf.c"
  59  0019  3011        	set [17].0
  59  001A  0003        	ret
  59  001B              _Sys_init endp
  59  001B              #line 59 "c:\users\user\documents\htk_project\qbell_master_mb_v1_2_f10\hal_rf.c"
  59  001B              #pragma debug scope 1 1
  59  001B              public _RF_Process_Init
  59  001B              #pragma debug scope 4 1
  87  001B              #line 87 "c:\users\user\documents\htk_project\qbell_master_mb_v1_2_f10\hal_rf.c"
  87  0000              _RF_Process_Init .section 'code'
  87  0000              _RF_Process_Init proc
  88  0000              #line 88 "c:\users\user\documents\htk_project\qbell_master_mb_v1_2_f10\hal_rf.c"
  88  0000  2000     R  	call _Sys_init
  89  0001              #line 89 "c:\users\user\documents\htk_project\qbell_master_mb_v1_2_f10\hal_rf.c"
  89  0001  2000     E  	call _RF_Init
  90  0002              #line 90 "c:\users\user\documents\htk_project\qbell_master_mb_v1_2_f10\hal_rf.c"
  90  0002  2000     E  	call _RF_Parameter_loading
  92  0003              #line 92 "c:\users\user\documents\htk_project\qbell_master_mb_v1_2_f10\hal_rf.c"
  92  0003  0F05        	mov a,5
  92  0004  0080     E  	mov _BC3602_T[0],a
  92  0005  0003        	ret
  92  0006              _RF_Process_Init endp
  92  0006              #line 92 "c:\users\user\documents\htk_project\qbell_master_mb_v1_2_f10\hal_rf.c"
  92  0006              #pragma debug scope 1 1
  92  0006              public _TB0_proc
  92  0006              #pragma debug scope 5 1
 129  0006              #line 129 "c:\users\user\documents\htk_project\qbell_master_mb_v1_2_f10\hal_rf.c"
 129  0000              @TB0_proc_code .section at 28 'code'
 129  0000              ifdef INTERRUPT_DELAY
 129  0000              	nop
 129  0000              endif
 129  0000  0080     E  	mov r1,a
 129  0001  070A        	mov a,status
 129  0002              ifndef INTERRUPT_DELAY
 129  0002  0080     E  	mov r2,a
 129  0003              endif
 129  0003  2800     R  	jmp _TB0_proc
 129  0004              #pragma debug scope 1 1
 129  0004              @dummy28 endp
 129  0004              #pragma debug scope 6 1
 129  0000              _TB0_proc .section 'code'
 129  0000              _TB0_proc proc
 129  0000              ifdef INTERRUPT_DELAY
 129  0000              	mov r2,a
 129  0000              endif
 130  0000              #line 130 "c:\users\user\documents\htk_project\qbell_master_mb_v1_2_f10\hal_rf.c"
 130  0000  1E00     E  	snz _intF[27]
 130  0001  2800     R  	jmp _L12
 131  0002              #line 131 "c:\users\user\documents\htk_project\qbell_master_mb_v1_2_f10\hal_rf.c"
 131  0002  1480     R  	inc _Mflag[4]
 131  0003              _L12:
 133  0003              #line 133 "c:\users\user\documents\htk_project\qbell_master_mb_v1_2_f10\hal_rf.c"
 133  0003  1480     R  	inc _Mflag[6]
 133  0004  0700     E  	mov a,r2
 133  0005  008A        	mov status,a
 133  0006  0700     E  	mov a,r1
 133  0007  0004        	reti
 133  0008              _TB0_proc endp
 133  0008              
"File: hal_rf.c      Assembler  Version HGASM0202      Page 5

 133  0008              #line 133 "c:\users\user\documents\htk_project\qbell_master_mb_v1_2_f10\hal_rf.c"
 133  0008              #pragma debug scope 1 1
 133  0000              @crom	.section 'crom'
 133  0000              _LC0:
 133  0000              	db 04eh,06fh,074h,069h,066h,069h,063h,061h,074h,069h
 133  0005              	db 06fh,06eh,020h,041h,063h,06bh,020h,052h,065h,063h
 133  000A              	db 065h,069h,076h,065h,064h,03ah,020h,00h
 133  000E              @crom	.section 'crom'
 133  000E              _LC1:
 133  000E              	db 050h,061h,069h,072h,069h,06eh,067h,020h,041h,063h
 133  0013              	db 06bh,020h,052h,065h,071h,075h,065h,073h,074h,020h
 133  0018              	db 052h,065h,063h,065h,069h,076h,065h,064h,03ah,020h
 133  001D              	db 00h
 133  001E              @crom	.section 'crom'
 133  001E              _LC2:
 133  001E              	db 055h,06eh,070h,061h,072h,069h,06eh,067h,020h,041h
 133  0023              	db 063h,06bh,020h,052h,065h,071h,075h,065h,073h,074h
 133  0028              	db 020h,052h,065h,063h,065h,069h,076h,065h,064h,03ah
 133  002D              	db 020h,00h
 133  002E              @crom	.section 'crom'
 133  002E              _LC3:
 133  002E              	db 050h,061h,069h,072h,069h,06eh,067h,020h,043h,06fh
 133  0033              	db 06eh,066h,069h,072h,06dh,061h,074h,069h,06fh,06eh
 133  0038              	db 020h,052h,065h,071h,075h,065h,073h,074h,020h,052h
 133  003D              	db 065h,063h,065h,069h,076h,065h,064h,03ah,020h,00h
 133  0042              @crom	.section 'crom'
 133  0042              _LC4:
 133  0042              	db 055h,06eh,070h,061h,069h,072h,069h,06eh,067h,020h
 133  0047              	db 043h,06fh,06eh,066h,069h,072h,06dh,061h,074h,069h
 133  004C              	db 06fh,06eh,020h,052h,065h,071h,075h,065h,073h,074h
 133  0051              	db 020h,052h,065h,063h,065h,069h,076h,065h,064h,03ah
 133  0056              	db 020h,00h
 133  0057              @crom	.section 'crom'
 133  0057              _LC5:
 133  0057              	db 0ah,00h
 133  0058              public _RF_Finished_Process
 133  0058              #pragma debug scope 7 1
 196  0058              #line 196 "c:\users\user\documents\htk_project\qbell_master_mb_v1_2_f10\hal_rf.c"
 196  0000              _RF_Finished_Process .section 'code'
 196  0000              _RF_Finished_Process proc
 196  0000              public _RF_Finished_Process_2
 196  0000  0002[           local _RF_Finished_Process_2 db 2 dup(?)	; 2,0
            00
            ]
 196  0002              #pragma debug struct_end
 196  0002              #pragma debug struct_end
 196  0002              #pragma debug pointer 43 42 7
 196  0002              #pragma debug pointer 43 42 7
 196  0002              #pragma debug variable 43 7 _RF_Finished_Process_2+0 "BC3602_T"
 198  0002              #line 198 "c:\users\user\documents\htk_project\qbell_master_mb_v1_2_f10\hal_rf.c"
 198  0000  0700     R  	mov a,_RF_Finished_Process_2[0]
 198  0001  0080     E  	mov rb,a
 198  0002  0700     R  	mov a,_RF_Finished_Process_2[1]
 198  0003  0080     E  	mov rc,a
 198  0004  0F0E        	mov a,14
 198  0005  0300     E  	add a,rb
 198  0006  0083        	mov mp,a
 198  0007  0F00        	mov a,0
 198  0008  1300     E  	adc a,rc
 198  0009  0084        	mov sbp,a
"File: hal_rf.c      Assembler  Version HGASM0202      Page 6

 198  000A  2000     E  	call _Crom2Prom
 198  000B  0080     E  	mov ra,a
 198  000C  1E00     E  	snz ra
 198  000D  2800     R  	jmp _L14
 200  000E              #line 200 "c:\users\user\documents\htk_project\qbell_master_mb_v1_2_f10\hal_rf.c"
 200  000E  0700     E  	mov a,_RF_TXFIFO[0]
 200  000F  0A04        	sub a,4
 200  0010  390A        	snz z
 200  0011  2800     R  	jmp _L15
 212  0012              #line 212 "c:\users\user\documents\htk_project\qbell_master_mb_v1_2_f10\hal_rf.c"
 212  0012  1F00     E  	clr _intF[30]
 212  0013              _L15:
 221  0013              #line 221 "c:\users\user\documents\htk_project\qbell_master_mb_v1_2_f10\hal_rf.c"
 221  0013  0F0E        	mov a,14
 221  0014  0300     E  	add a,rb
 221  0015  0083        	mov mp,a
 221  0016  0F00        	mov a,0
 221  0017  1300     E  	adc a,rc
 221  0018  0084        	mov sbp,a
 221  0019  0F00        	mov a,0
 221  001A  0082        	mov ir,a
 222  001B              #line 222 "c:\users\user\documents\htk_project\qbell_master_mb_v1_2_f10\hal_rf.c"
 222  001B  0F01        	mov a,1
 222  001C  0300     R  	add a,_RF_Finished_Process_2[0]
 222  001D  0083        	mov mp,a
 222  001E  0F00        	mov a,0
 222  001F  1300     R  	adc a,_RF_Finished_Process_2[1]
 222  0020  0084        	mov sbp,a
 222  0021  0F00        	mov a,0
 222  0022  0082        	mov ir,a
 223  0023              #line 223 "c:\users\user\documents\htk_project\qbell_master_mb_v1_2_f10\hal_rf.c"
 223  0023  0700     R  	mov a,_RF_Finished_Process_2[0]
 223  0024  0083        	mov mp,a
 223  0025  0700     R  	mov a,_RF_Finished_Process_2[1]
 223  0026  0084        	mov sbp,a
 223  0027  0F05        	mov a,5
 223  0028  0082        	mov ir,a
 223  0029              _L14:
 226  0029              #line 226 "c:\users\user\documents\htk_project\qbell_master_mb_v1_2_f10\hal_rf.c"
 226  0029  0700     R  	mov a,_RF_Finished_Process_2[0]
 226  002A  0080     E  	mov rb,a
 226  002B  0700     R  	mov a,_RF_Finished_Process_2[1]
 226  002C  0080     E  	mov rc,a
 226  002D  0F0F        	mov a,15
 226  002E  0300     E  	add a,rb
 226  002F  0083        	mov mp,a
 226  0030  0F00        	mov a,0
 226  0031  1300     E  	adc a,rc
 226  0032  0084        	mov sbp,a
 226  0033  2000     E  	call _Crom2Prom
 226  0034  0080     E  	mov ra,a
 226  0035  1E00     E  	snz ra
 226  0036  2800     R  	jmp _L17
 241  0037              #line 241 "c:\users\user\documents\htk_project\qbell_master_mb_v1_2_f10\hal_rf.c"
 241  0037  0F01        	mov a,1
 241  0038  0300     E  	add a,rb
 241  0039  0083        	mov mp,a
 241  003A  0F00        	mov a,0
 241  003B  1300     E  	adc a,rc
 241  003C  0084        	mov sbp,a
"File: hal_rf.c      Assembler  Version HGASM0202      Page 7

 241  003D  0F00        	mov a,0
 241  003E  0082        	mov ir,a
 242  003F              #line 242 "c:\users\user\documents\htk_project\qbell_master_mb_v1_2_f10\hal_rf.c"
 242  003F  0F0F        	mov a,15
 242  0040  0300     R  	add a,_RF_Finished_Process_2[0]
 242  0041  0083        	mov mp,a
 242  0042  0F00        	mov a,0
 242  0043  1300     R  	adc a,_RF_Finished_Process_2[1]
 242  0044  0084        	mov sbp,a
 242  0045  0F00        	mov a,0
 242  0046  0082        	mov ir,a
 243  0047              #line 243 "c:\users\user\documents\htk_project\qbell_master_mb_v1_2_f10\hal_rf.c"
 243  0047  0700     R  	mov a,_RF_Finished_Process_2[0]
 243  0048  0083        	mov mp,a
 243  0049  0700     R  	mov a,_RF_Finished_Process_2[1]
 243  004A  0084        	mov sbp,a
 243  004B  0F05        	mov a,5
 243  004C  0082        	mov ir,a
 243  004D              _L17:
 246  004D              #line 246 "c:\users\user\documents\htk_project\qbell_master_mb_v1_2_f10\hal_rf.c"
 246  004D  0F17        	mov a,23
 246  004E  0300     R  	add a,_RF_Finished_Process_2[0]
 246  004F  0083        	mov mp,a
 246  0050  0F00        	mov a,0
 246  0051  1300     R  	adc a,_RF_Finished_Process_2[1]
 246  0052  0084        	mov sbp,a
 246  0053  2000     E  	call _Crom2Prom
 246  0054  0080     E  	mov ra,a
 246  0055  1E00     E  	snz ra
 246  0056  2800     R  	jmp _L13
 246  0057  0F0A        	mov a,10
 246  0058  0080     E  	mov ra,a
 246  0059  1F00     E  	clr rd
 246  005A              _L20:
 246  005A              #pragma debug scope 8 7
 246  005A              ;begin block, line: 246.-1
 254  005A              #line 254 "c:\users\user\documents\htk_project\qbell_master_mb_v1_2_f10\hal_rf.c"
 254  005A  0700     E  	mov a,rd
 254  005B  0080     E  	mov rb,a
 254  005C  1F00     E  	clr rc
 254  005D  0F00     E  	mov a,low offset _RF_RXFIFO
 254  005E  0300     E  	add a,rb
 254  005F  0083        	mov mp,a
 254  0060  0F00     E  	mov a,high offset _RF_RXFIFO
 254  0061  1300     E  	adc a,rc
 254  0062  0084        	mov sbp,a
 254  0063  2000     E  	call _Crom2Prom
 254  0064  0080     E  	mov re,a
 254  0065  0F00     E  	mov a,low (offset _intF+11)
 254  0066  0300     E  	add a,rb
 254  0067  0083        	mov mp,a
 254  0068  0F00     E  	mov a,high (offset _intF+11)
 254  0069  1300     E  	adc a,rc
 254  006A  0084        	mov sbp,a
 254  006B  0700     E  	mov a,re
 254  006C  0082        	mov ir,a
 253  006D              #line 253 "c:\users\user\documents\htk_project\qbell_master_mb_v1_2_f10\hal_rf.c"
 253  006D  1480     E  	inc rd
 253  006E  1780     E  	sdz ra
 253  006F  2800     R  	jmp _L20
"File: hal_rf.c      Assembler  Version HGASM0202      Page 8

 256  0070              #line 256 "c:\users\user\documents\htk_project\qbell_master_mb_v1_2_f10\hal_rf.c"
 256  0070  0700     E  	mov a,_RF_RXFIFO[0]
 256  0071  0A01        	sub a,1
 256  0072  3D0A        	sz z
 256  0073  2800     R  	jmp _L22
 256  0074  0A01        	sub a,(2)-(1)
 256  0075  3D0A        	sz z
 256  0076  2800     R  	jmp _L23
 256  0077  0700     E  	mov a,_RF_RXFIFO[0]
 256  0078  0A03        	sub a,3
 256  0079  3D0A        	sz z
 256  007A  2800     R  	jmp _L24
 256  007B  0A01        	sub a,(4)-(3)
 256  007C  3D0A        	sz z
 256  007D  2800     R  	jmp _L25
 256  007E  0700     E  	mov a,_RF_RXFIFO[0]
 256  007F  0A05        	sub a,5
 256  0080  390A        	snz z
 256  0081  2800     R  	jmp _L21
 286  0082              #line 286 "c:\users\user\documents\htk_project\qbell_master_mb_v1_2_f10\hal_rf.c"
 286  0082  0F01        	mov a,1
 286  0083  0080     E  	mov _intF[28],a
 287  0084              #line 287 "c:\users\user\documents\htk_project\qbell_master_mb_v1_2_f10\hal_rf.c"
 287  0084  0F00     R  	mov a,low offset _LC4
 287  0085  0080     E  	mov _uart_printf_2[0],a
 287  0086  0F00     R  	mov a,high offset _LC4
 287  0087  0080     E  	mov _uart_printf_2[1],a
 287  0088  2800     R  	jmp _L36
 287  0089              _L22:
 259  0089              #line 259 "c:\users\user\documents\htk_project\qbell_master_mb_v1_2_f10\hal_rf.c"
 259  0089  0F01        	mov a,1
 259  008A  0080     E  	mov _intF[0],a
 260  008B              #line 260 "c:\users\user\documents\htk_project\qbell_master_mb_v1_2_f10\hal_rf.c"
 260  008B  0F00     R  	mov a,low offset _LC0
 260  008C  0080     E  	mov _uart_printf_2[0],a
 260  008D  0F00     R  	mov a,high offset _LC0
 260  008E  0080     E  	mov _uart_printf_2[1],a
 260  008F  2000     E  	call _uart_printf
 261  0090              #line 261 "c:\users\user\documents\htk_project\qbell_master_mb_v1_2_f10\hal_rf.c"
 261  0090  0700     E  	mov a,_RF_RXFIFO[5]
 261  0091  0080     E  	mov _intF[4],a
 262  0092              #line 262 "c:\users\user\documents\htk_project\qbell_master_mb_v1_2_f10\hal_rf.c"
 262  0092  2800     R  	jmp _L21
 262  0093              _L23:
 266  0093              #line 266 "c:\users\user\documents\htk_project\qbell_master_mb_v1_2_f10\hal_rf.c"
 266  0093  0F01        	mov a,1
 266  0094  0080     E  	mov _intF[28],a
 267  0095              #line 267 "c:\users\user\documents\htk_project\qbell_master_mb_v1_2_f10\hal_rf.c"
 267  0095  0F00     R  	mov a,low offset _LC1
 267  0096  0080     E  	mov _uart_printf_2[0],a
 267  0097  0F00     R  	mov a,high offset _LC1
 267  0098  0080     E  	mov _uart_printf_2[1],a
 267  0099  2800     R  	jmp _L36
 267  009A              _L24:
 272  009A              #line 272 "c:\users\user\documents\htk_project\qbell_master_mb_v1_2_f10\hal_rf.c"
 272  009A  0F01        	mov a,1
 272  009B  0080     E  	mov _intF[28],a
 273  009C              #line 273 "c:\users\user\documents\htk_project\qbell_master_mb_v1_2_f10\hal_rf.c"
 273  009C  0F01        	mov a,1
 273  009D  0080     E  	mov _intF[27],a
"File: hal_rf.c      Assembler  Version HGASM0202      Page 9

 274  009E              #line 274 "c:\users\user\documents\htk_project\qbell_master_mb_v1_2_f10\hal_rf.c"
 274  009E  0F00     R  	mov a,low offset _LC2
 274  009F  0080     E  	mov _uart_printf_2[0],a
 274  00A0  0F00     R  	mov a,high offset _LC2
 274  00A1  0080     E  	mov _uart_printf_2[1],a
 274  00A2  2800     R  	jmp _L36
 274  00A3              _L25:
 279  00A3              #line 279 "c:\users\user\documents\htk_project\qbell_master_mb_v1_2_f10\hal_rf.c"
 279  00A3  0F01        	mov a,1
 279  00A4  0080     E  	mov _intF[28],a
 280  00A5              #line 280 "c:\users\user\documents\htk_project\qbell_master_mb_v1_2_f10\hal_rf.c"
 280  00A5  0F00     R  	mov a,low offset _LC3
 280  00A6  0080     E  	mov _uart_printf_2[0],a
 280  00A7  0F00     R  	mov a,high offset _LC3
 280  00A8  0080     E  	mov _uart_printf_2[1],a
 280  00A9              _L36:
 287  00A9              #line 287 "c:\users\user\documents\htk_project\qbell_master_mb_v1_2_f10\hal_rf.c"
 287  00A9  2000     E  	call _uart_printf
 287  00AA              _L21:
 295  00AA              #line 295 "c:\users\user\documents\htk_project\qbell_master_mb_v1_2_f10\hal_rf.c"
 295  00AA  0F00     E  	mov a,low (offset _intF+11)
 295  00AB  0080     E  	mov _uart_printf_2[0],a
 295  00AC  0F00     E  	mov a,high (offset _intF+11)
 295  00AD  0080     E  	mov _uart_printf_2[1],a
 295  00AE  2000     E  	call _uart_printf
 296  00AF              #line 296 "c:\users\user\documents\htk_project\qbell_master_mb_v1_2_f10\hal_rf.c"
 296  00AF  0F00     R  	mov a,low offset _LC5
 296  00B0  0080     E  	mov _uart_printf_2[0],a
 296  00B1  0F00     R  	mov a,high offset _LC5
 296  00B2  0080     E  	mov _uart_printf_2[1],a
 296  00B3  2000     E  	call _uart_printf
 297  00B4              #line 297 "c:\users\user\documents\htk_project\qbell_master_mb_v1_2_f10\hal_rf.c"
 297  00B4  0F01        	mov a,1
 297  00B5  0300     R  	add a,_RF_Finished_Process_2[0]
 297  00B6  0083        	mov mp,a
 297  00B7  0F00        	mov a,0
 297  00B8  1300     R  	adc a,_RF_Finished_Process_2[1]
 297  00B9  0084        	mov sbp,a
 297  00BA  0F00        	mov a,0
 297  00BB  0082        	mov ir,a
 298  00BC              #line 298 "c:\users\user\documents\htk_project\qbell_master_mb_v1_2_f10\hal_rf.c"
 298  00BC  0F17        	mov a,23
 298  00BD  0300     R  	add a,_RF_Finished_Process_2[0]
 298  00BE  0083        	mov mp,a
 298  00BF  0F00        	mov a,0
 298  00C0  1300     R  	adc a,_RF_Finished_Process_2[1]
 298  00C1  0084        	mov sbp,a
 298  00C2  0F00        	mov a,0
 298  00C3  0082        	mov ir,a
 299  00C4              #line 299 "c:\users\user\documents\htk_project\qbell_master_mb_v1_2_f10\hal_rf.c"
 299  00C4  0700     R  	mov a,_RF_Finished_Process_2[0]
 299  00C5  0083        	mov mp,a
 299  00C6  0700     R  	mov a,_RF_Finished_Process_2[1]
 299  00C7  0084        	mov sbp,a
 299  00C8  0F05        	mov a,5
 299  00C9  0082        	mov ir,a
 299  00CA              _L13:
 299  00CA              #pragma debug scope 7 1
 299  00CA  0003        	ret
 299  00CB              _RF_Finished_Process endp
"File: hal_rf.c      Assembler  Version HGASM0202      Page 10

 299  00CB              #line 299 "c:\users\user\documents\htk_project\qbell_master_mb_v1_2_f10\hal_rf.c"
 299  00CB              #pragma debug scope 1 1
 299  0058              @crom	.section 'crom'
 299  0058              _LC6:
 299  0058              	db 054h,072h,061h,06eh,073h,06dh,069h,074h,074h,069h
 299  005D              	db 06eh,067h,020h,050h,061h,063h,06bh,065h,074h,03ah
 299  0062              	db 020h,00h
 299  0063              public _DATA_Process
 299  0063              #pragma debug scope 9 1
 309  0063              #line 309 "c:\users\user\documents\htk_project\qbell_master_mb_v1_2_f10\hal_rf.c"
 309  0000              _DATA_Process .section 'code'
 309  0000              _DATA_Process proc
 309  0000              public _DATA_Process_2
 309  0000  0004[           local _DATA_Process_2 db 4 dup(?)	; 2,2
            00
            ]
 309  0004              #pragma debug pointer 44 8 9
 309  0004              #pragma debug pointer 44 8 9
 309  0004              #pragma debug variable 44 9 _DATA_Process_2+0 "FIFO"
 311  0004              #line 311 "c:\users\user\documents\htk_project\qbell_master_mb_v1_2_f10\hal_rf.c"
 311  0000  0F00     R  	mov a,low offset _LC6
 311  0001  0080     E  	mov _uart_printf_2[0],a
 311  0002  0F00     R  	mov a,high offset _LC6
 311  0003  0080     E  	mov _uart_printf_2[1],a
 311  0004  2000     E  	call _uart_printf
 311  0005  1F00     R  	clr _DATA_Process_2[2]
 311  0006  1F00     R  	clr _DATA_Process_2[3]
 311  0007              _L39:
 315  0007              #line 315 "c:\users\user\documents\htk_project\qbell_master_mb_v1_2_f10\hal_rf.c"
 315  0007  1480     R  	inc _DATA_Process_2[0]
 315  0008  3D0A        	sz z
 315  0009  1480     R  	inc _DATA_Process_2[1]
 315  000A  0F00     E  	mov a,low (offset _intF+6)
 315  000B  0300     R  	add a,_DATA_Process_2[2]
 315  000C  0080     E  	mov rb,a
 315  000D  0F00     E  	mov a,high (offset _intF+6)
 315  000E  1300     R  	adc a,_DATA_Process_2[3]
 315  000F  0080     E  	mov rc,a
 316  0010              #line 316 "c:\users\user\documents\htk_project\qbell_master_mb_v1_2_f10\hal_rf.c"
 316  0010  0700     E  	mov a,rb
 316  0011  0083        	mov mp,a
 316  0012  0700     E  	mov a,rc
 316  0013  0084        	mov sbp,a
 316  0014  2000     E  	call _Crom2Prom
 316  0015  0080     E  	mov ra,a
 316  0016  0700     R  	mov a,_DATA_Process_2[0]
 316  0017  0083        	mov mp,a
 316  0018  0700     R  	mov a,_DATA_Process_2[1]
 316  0019  0084        	mov sbp,a
 316  001A  0700     E  	mov a,ra
 316  001B  0082        	mov ir,a
 317  001C              #line 317 "c:\users\user\documents\htk_project\qbell_master_mb_v1_2_f10\hal_rf.c"
 317  001C  0700     E  	mov a,rb
 317  001D  0083        	mov mp,a
 317  001E  0700     E  	mov a,rc
 317  001F  0084        	mov sbp,a
 317  0020  2000     E  	call _Crom2Prom
 317  0021  2000     E  	call _uart_send
 317  0022  1480     R  	inc _DATA_Process_2[2]
 317  0023  3D0A        	sz z
"File: hal_rf.c      Assembler  Version HGASM0202      Page 11

 317  0024  1480     R  	inc _DATA_Process_2[3]
 312  0025              #line 312 "c:\users\user\documents\htk_project\qbell_master_mb_v1_2_f10\hal_rf.c"
 312  0025  0700     R  	mov a,_DATA_Process_2[2]
 312  0026  0C18        	xor a,24
 312  0027  0500     R  	or a,_DATA_Process_2[3]
 312  0028  390A        	snz z
 312  0029  2800     R  	jmp _L39
 327  002A              #line 327 "c:\users\user\documents\htk_project\qbell_master_mb_v1_2_f10\hal_rf.c"
 327  002A  0F00     R  	mov a,low offset _LC5
 327  002B  0080     E  	mov _uart_printf_2[0],a
 327  002C  0F00     R  	mov a,high offset _LC5
 327  002D  0080     E  	mov _uart_printf_2[1],a
 327  002E  2000     E  	call _uart_printf
 327  002F  0003        	ret
 327  0030              _DATA_Process endp
 327  0030              #line 327 "c:\users\user\documents\htk_project\qbell_master_mb_v1_2_f10\hal_rf.c"
 327  0030              #pragma debug scope 1 1
 327  0063              @crom	.section 'crom'
 327  0063              _LC7:
 327  0063              	db 04eh,06fh,074h,069h,066h,069h,063h,061h,074h,069h
 327  0068              	db 06fh,06eh,020h,041h,063h,06bh,020h,053h,065h,06eh
 327  006D              	db 064h,069h,06eh,067h,0ah,00h
 327  0070              @crom	.section 'crom'
 327  0070              _LC8:
 327  0070              	db 053h,065h,06eh,064h,069h,06eh,067h,020h,050h,061h
 327  0075              	db 069h,072h,069h,06eh,067h,020h,052h,065h,071h,075h
 327  007A              	db 065h,073h,074h,0ah,00h
 327  007C              @crom	.section 'crom'
 327  007C              _LC9:
 327  007C              	db 053h,065h,06eh,064h,069h,06eh,067h,020h,055h,06eh
 327  0081              	db 070h,061h,069h,072h,069h,06eh,067h,020h,052h,065h
 327  0086              	db 071h,075h,065h,073h,074h,0ah,00h
 327  008A              @crom	.section 'crom'
 327  008A              _LC10:
 327  008A              	db 053h,065h,06eh,064h,069h,06eh,067h,020h,050h,061h
 327  008F              	db 069h,072h,020h,043h,06fh,06eh,066h,069h,072h,06dh
 327  0094              	db 061h,074h,069h,06fh,06eh,020h,052h,065h,071h,075h
 327  0099              	db 065h,073h,074h,0ah,00h
 327  009B              @crom	.section 'crom'
 327  009B              _LC11:
 327  009B              	db 053h,065h,06eh,064h,069h,06eh,067h,020h,055h,06eh
 327  00A0              	db 070h,061h,069h,072h,069h,06eh,067h,020h,043h,06fh
 327  00A5              	db 06eh,066h,069h,072h,06dh,061h,074h,069h,06fh,06eh
 327  00AA              	db 020h,052h,065h,071h,075h,065h,073h,074h,0ah,00h
 327  00AF              public _KEY_Process
 327  00AF              #pragma debug scope 10 1
 142  00AF              #line 142 "c:\users\user\documents\htk_project\qbell_master_mb_v1_2_f10\hal_rf.c"
 142  0000              _KEY_Process .section 'code'
 142  0000              _KEY_Process proc
 142  0000  00              local _KEY_Process_2 db 1 dup(?)	; 0,1
 142  0000  0080     E  	mov ra,a
 142  0001              #pragma debug variable 8 10 _KEY_Process_2+0 "key_status"
 143  0001              #line 143 "c:\users\user\documents\htk_project\qbell_master_mb_v1_2_f10\hal_rf.c"
 143  0001  0700     E  	mov a,ra
 143  0002  0A01        	sub a,1
 143  0003  3D0A        	sz z
 143  0004  2800     R  	jmp _L42
 143  0005  0A01        	sub a,(2)-(1)
 143  0006  3D0A        	sz z
 143  0007  2800     R  	jmp _L43
"File: hal_rf.c      Assembler  Version HGASM0202      Page 12

 143  0008              #line 143 "c:\users\user\documents\htk_project\qbell_master_mb_v1_2_f10\hal_rf.c"
 143  0008  0700     E  	mov a,ra
 143  0009  0A03        	sub a,3
 143  000A  3D0A        	sz z
 143  000B  2800     R  	jmp _L44
 143  000C  0A01        	sub a,(4)-(3)
 143  000D  3D0A        	sz z
 143  000E  2800     R  	jmp _L45
 143  000F  0700     E  	mov a,ra
 143  0010  0A05        	sub a,5
 143  0011  390A        	snz z
 143  0012  2800     R  	jmp _L40
 178  0013              #line 178 "c:\users\user\documents\htk_project\qbell_master_mb_v1_2_f10\hal_rf.c"
 178  0013  0F05        	mov a,5
 178  0014  0080     E  	mov _RF_TXFIFO[0],a
 179  0015              #line 179 "c:\users\user\documents\htk_project\qbell_master_mb_v1_2_f10\hal_rf.c"
 179  0015  0F00     E  	mov a,low offset _RF_TXFIFO
 179  0016  0080     R  	mov _DATA_Process_2[0],a
 179  0017  0F00     E  	mov a,high offset _RF_TXFIFO
 179  0018  0080     R  	mov _DATA_Process_2[1],a
 179  0019  2000     R  	call _DATA_Process
 180  001A              #line 180 "c:\users\user\documents\htk_project\qbell_master_mb_v1_2_f10\hal_rf.c"
 180  001A  1F00     E  	clr _BC3602_T[1]
 181  001B              #line 181 "c:\users\user\documents\htk_project\qbell_master_mb_v1_2_f10\hal_rf.c"
 181  001B  0F04        	mov a,4
 181  001C  0080     E  	mov _BC3602_T[0],a
 182  001D              #line 182 "c:\users\user\documents\htk_project\qbell_master_mb_v1_2_f10\hal_rf.c"
 182  001D  0F00     R  	mov a,low offset _LC11
 182  001E  0080     E  	mov _uart_printf_2[0],a
 182  001F  0F00     R  	mov a,high offset _LC11
 182  0020  0080     E  	mov _uart_printf_2[1],a
 182  0021  2800     R  	jmp _L48
 182  0022              _L42:
 146  0022              #line 146 "c:\users\user\documents\htk_project\qbell_master_mb_v1_2_f10\hal_rf.c"
 146  0022  0F01        	mov a,1
 146  0023  0080     E  	mov _RF_TXFIFO[0],a
 147  0024              #line 147 "c:\users\user\documents\htk_project\qbell_master_mb_v1_2_f10\hal_rf.c"
 147  0024  0F00     E  	mov a,low offset _RF_TXFIFO
 147  0025  0080     R  	mov _DATA_Process_2[0],a
 147  0026  0F00     E  	mov a,high offset _RF_TXFIFO
 147  0027  0080     R  	mov _DATA_Process_2[1],a
 147  0028  2000     R  	call _DATA_Process
 148  0029              #line 148 "c:\users\user\documents\htk_project\qbell_master_mb_v1_2_f10\hal_rf.c"
 148  0029  1F00     E  	clr _BC3602_T[1]
 149  002A              #line 149 "c:\users\user\documents\htk_project\qbell_master_mb_v1_2_f10\hal_rf.c"
 149  002A  0F04        	mov a,4
 149  002B  0080     E  	mov _BC3602_T[0],a
 150  002C              #line 150 "c:\users\user\documents\htk_project\qbell_master_mb_v1_2_f10\hal_rf.c"
 150  002C  0F00     R  	mov a,low offset _LC7
 150  002D  0080     E  	mov _uart_printf_2[0],a
 150  002E  0F00     R  	mov a,high offset _LC7
 150  002F  0080     E  	mov _uart_printf_2[1],a
 150  0030  2800     R  	jmp _L48
 150  0031              _L43:
 154  0031              #line 154 "c:\users\user\documents\htk_project\qbell_master_mb_v1_2_f10\hal_rf.c"
 154  0031  0F02        	mov a,2
 154  0032  0080     E  	mov _RF_TXFIFO[0],a
 155  0033              #line 155 "c:\users\user\documents\htk_project\qbell_master_mb_v1_2_f10\hal_rf.c"
 155  0033  0F00     E  	mov a,low offset _RF_TXFIFO
 155  0034  0080     R  	mov _DATA_Process_2[0],a
"File: hal_rf.c      Assembler  Version HGASM0202      Page 13

 155  0035  0F00     E  	mov a,high offset _RF_TXFIFO
 155  0036  0080     R  	mov _DATA_Process_2[1],a
 155  0037  2000     R  	call _DATA_Process
 156  0038              #line 156 "c:\users\user\documents\htk_project\qbell_master_mb_v1_2_f10\hal_rf.c"
 156  0038  1F00     E  	clr _BC3602_T[1]
 157  0039              #line 157 "c:\users\user\documents\htk_project\qbell_master_mb_v1_2_f10\hal_rf.c"
 157  0039  0F00     R  	mov a,low offset _LC8
 157  003A  0080     E  	mov _uart_printf_2[0],a
 157  003B  0F00     R  	mov a,high offset _LC8
 157  003C  0080     E  	mov _uart_printf_2[1],a
 157  003D  2800     R  	jmp _L47
 157  003E              _L44:
 162  003E              #line 162 "c:\users\user\documents\htk_project\qbell_master_mb_v1_2_f10\hal_rf.c"
 162  003E  0F03        	mov a,3
 162  003F  0080     E  	mov _RF_TXFIFO[0],a
 163  0040              #line 163 "c:\users\user\documents\htk_project\qbell_master_mb_v1_2_f10\hal_rf.c"
 163  0040  0F00     E  	mov a,low offset _RF_TXFIFO
 163  0041  0080     R  	mov _DATA_Process_2[0],a
 163  0042  0F00     E  	mov a,high offset _RF_TXFIFO
 163  0043  0080     R  	mov _DATA_Process_2[1],a
 163  0044  2000     R  	call _DATA_Process
 164  0045              #line 164 "c:\users\user\documents\htk_project\qbell_master_mb_v1_2_f10\hal_rf.c"
 164  0045  1F00     E  	clr _BC3602_T[1]
 165  0046              #line 165 "c:\users\user\documents\htk_project\qbell_master_mb_v1_2_f10\hal_rf.c"
 165  0046  0F00     R  	mov a,low offset _LC9
 165  0047  0080     E  	mov _uart_printf_2[0],a
 165  0048  0F00     R  	mov a,high offset _LC9
 165  0049  0080     E  	mov _uart_printf_2[1],a
 165  004A  2800     R  	jmp _L47
 165  004B              _L45:
 170  004B              #line 170 "c:\users\user\documents\htk_project\qbell_master_mb_v1_2_f10\hal_rf.c"
 170  004B  0F04        	mov a,4
 170  004C  0080     E  	mov _RF_TXFIFO[0],a
 171  004D              #line 171 "c:\users\user\documents\htk_project\qbell_master_mb_v1_2_f10\hal_rf.c"
 171  004D  0F00     E  	mov a,low offset _RF_TXFIFO
 171  004E  0080     R  	mov _DATA_Process_2[0],a
 171  004F  0F00     E  	mov a,high offset _RF_TXFIFO
 171  0050  0080     R  	mov _DATA_Process_2[1],a
 171  0051  2000     R  	call _DATA_Process
 172  0052              #line 172 "c:\users\user\documents\htk_project\qbell_master_mb_v1_2_f10\hal_rf.c"
 172  0052  1F00     E  	clr _BC3602_T[1]
 173  0053              #line 173 "c:\users\user\documents\htk_project\qbell_master_mb_v1_2_f10\hal_rf.c"
 173  0053  0F00     R  	mov a,low offset _LC10
 173  0054  0080     E  	mov _uart_printf_2[0],a
 173  0055  0F00     R  	mov a,high offset _LC10
 173  0056  0080     E  	mov _uart_printf_2[1],a
 173  0057              _L47:
 173  0057  2000     E  	call _uart_printf
 174  0058              #line 174 "c:\users\user\documents\htk_project\qbell_master_mb_v1_2_f10\hal_rf.c"
 174  0058  0F04        	mov a,4
 174  0059  0080     E  	mov _BC3602_T[0],a
 175  005A              #line 175 "c:\users\user\documents\htk_project\qbell_master_mb_v1_2_f10\hal_rf.c"
 175  005A  2800     R  	jmp _L40
 175  005B              _L48:
 182  005B              #line 182 "c:\users\user\documents\htk_project\qbell_master_mb_v1_2_f10\hal_rf.c"
 182  005B  2000     E  	call _uart_printf
 182  005C              _L40:
 182  005C  0003        	ret
 182  005D              _KEY_Process endp
 182  005D              #line 182 "c:\users\user\documents\htk_project\qbell_master_mb_v1_2_f10\hal_rf.c"
"File: hal_rf.c      Assembler  Version HGASM0202      Page 14

 182  005D              #pragma debug scope 1 1
 182  005D              ___pas0 equ [91]
 182  005D              ___pas1 equ [92]
 182  005D              ___pbs0 equ [93]
 182  005D              ___pbs1 equ [94]
 182  005D              ___pcs0 equ [95]
 182  005D              ___pcs1 equ [96]
 182  005D              ___pds0 equ [97]
 182  005D              ___pa equ [20]
 182  005D              ___pawu equ [23]
 182  005D              ___pb equ [37]
 182  005D              ___pbc equ [38]
 182  005D              ___pc equ [65]
 182  005D              ___pd equ [82]
 182  005D              ___lvdc equ [24]
 182  005D              public _System_deepsleep
 182  005D              #pragma debug scope 11 1
 340  005D              #line 340 "c:\users\user\documents\htk_project\qbell_master_mb_v1_2_f10\hal_rf.c"
 340  0000              _System_deepsleep .section 'code'
 340  0000              _System_deepsleep proc
 341  0000              #line 341 "c:\users\user\documents\htk_project\qbell_master_mb_v1_2_f10\hal_rf.c"
 341  0000  1F5B        	clr [91]
 342  0001              #line 342 "c:\users\user\documents\htk_project\qbell_master_mb_v1_2_f10\hal_rf.c"
 342  0001  1F5C        	clr [92]
 343  0002              #line 343 "c:\users\user\documents\htk_project\qbell_master_mb_v1_2_f10\hal_rf.c"
 343  0002  1F5D        	clr [93]
 344  0003              #line 344 "c:\users\user\documents\htk_project\qbell_master_mb_v1_2_f10\hal_rf.c"
 344  0003  1F5E        	clr [94]
 345  0004              #line 345 "c:\users\user\documents\htk_project\qbell_master_mb_v1_2_f10\hal_rf.c"
 345  0004  1F5F        	clr [95]
 346  0005              #line 346 "c:\users\user\documents\htk_project\qbell_master_mb_v1_2_f10\hal_rf.c"
 346  0005  1F60        	clr [96]
 347  0006              #line 347 "c:\users\user\documents\htk_project\qbell_master_mb_v1_2_f10\hal_rf.c"
 347  0006  1F61        	clr [97]
 349  0007              #line 349 "c:\users\user\documents\htk_project\qbell_master_mb_v1_2_f10\hal_rf.c"
 349  0007  1F94        	set [20]
 350  0008              #line 350 "c:\users\user\documents\htk_project\qbell_master_mb_v1_2_f10\hal_rf.c"
 350  0008  1F15        	clr [21]
 351  0009              #line 351 "c:\users\user\documents\htk_project\qbell_master_mb_v1_2_f10\hal_rf.c"
 351  0009  1F17        	clr [23]
 352  000A              #line 352 "c:\users\user\documents\htk_project\qbell_master_mb_v1_2_f10\hal_rf.c"
 352  000A  1FA5        	set [37]
 353  000B              #line 353 "c:\users\user\documents\htk_project\qbell_master_mb_v1_2_f10\hal_rf.c"
 353  000B  1F26        	clr [38]
 354  000C              #line 354 "c:\users\user\documents\htk_project\qbell_master_mb_v1_2_f10\hal_rf.c"
 354  000C  1FC1        	set [65]
 355  000D              #line 355 "c:\users\user\documents\htk_project\qbell_master_mb_v1_2_f10\hal_rf.c"
 355  000D  1F42        	clr [66]
 356  000E              #line 356 "c:\users\user\documents\htk_project\qbell_master_mb_v1_2_f10\hal_rf.c"
 356  000E  1F52        	clr [82]
 358  000F              #line 358 "c:\users\user\documents\htk_project\qbell_master_mb_v1_2_f10\hal_rf.c"
 358  000F  3411        	clr [17].0
 359  0010              #line 359 "c:\users\user\documents\htk_project\qbell_master_mb_v1_2_f10\hal_rf.c"
 359  0010  0FA8        	mov a,168
 359  0011  009A        	mov [26],a
 360  0012              #line 360 "c:\users\user\documents\htk_project\qbell_master_mb_v1_2_f10\hal_rf.c"
 360  0012  3618        	clr [24].4
 361  0013              #line 361 "c:\users\user\documents\htk_project\qbell_master_mb_v1_2_f10\hal_rf.c"
 361  0013  3499        	clr [25].1
 362  0014              #line 362 "c:\users\user\documents\htk_project\qbell_master_mb_v1_2_f10\hal_rf.c"
"File: hal_rf.c      Assembler  Version HGASM0202      Page 15

 362  0014  3419        	clr [25].0
 363  0015              #line 363 "c:\users\user\documents\htk_project\qbell_master_mb_v1_2_f10\hal_rf.c"
 363  0015              ;# 363 "c:\users\user\documents\htk_project\qbell_master_mb_v1_2_f10\hal_rf.c" 1
 363  0015  0002        	halt
 363  0016  0003        	ret
 363  0017              _System_deepsleep endp
 363  0017              #line 363 "c:\users\user\documents\htk_project\qbell_master_mb_v1_2_f10\hal_rf.c"
 363  0017              #pragma debug scope 1 1
 363  0017              public _BC3602_pn9_dataM
 363  00AF              @crom	.section 'crom'
  10  00AF              #line 10 "c:\users\user\documents\htk_project\qbell_master_mb_v1_2_f10\hal_rf.c"
  10  00AF              @crom	.section	'crom'
  10  00AF              _BC3602_pn9_dataM:
  10  00AF              #pragma debug array 45 8 25 1
  10  00AF              #pragma debug array 45 8 25 1
  10  00AF              #pragma debug variable 45 1 _BC3602_pn9_dataM "BC3602_pn9_dataM"
  10  00AF              	db 64
  10  00B0              	db 1
  10  00B0              	db 1
  10  00B1              	db 2
  10  00B1              	db 0
  10  00B2              	db 0
  10  00B2              	db 0
  10  00B3              	db 0
  10  00B3              	db 0
  10  00B4              	db 0
  10  00B4              	db 0
  10  00B5              	db 0
  10  00B5              	db 0
  10  00B6              	db 0
  10  00B6              	db 0
  10  00B7              	db 0
  10  00B7              	db 0
  10  00B8              	db 0
  10  00B8              	db 0
  10  00B9              	db 0
  10  00B9              	db 0
  10  00BA              	db 0
  10  00BA              	db 0
  10  00BB              	db 0
  10  00BB              	db 0
   3  00BC              #line 3 "c:\users\user\documents\htk_project\qbell_master_mb_v1_2_f10\hal_rf.c"
   3  00BC              public _Mflag
   3  0000              @HCCINIT0_Mflag .section 'data'
   3  0000  0009[       _Mflag	db 9 dup(0)
            00
            ]
   3  0009              #pragma debug struct_end
   3  0009              #pragma debug struct_end
   3  0009              #pragma debug variable 46 1 _Mflag "Mflag"
   3  0009              
   3  0000              @HCCINIT .section 'data'
   3  0000              #pragma debug variable 8 1 ___mp1l "__mp1l" 1
   3  0000              #pragma debug variable 8 1 ___mp1h "__mp1h" 1
   3  0000              #pragma debug variable 8 1 ___tblp "__tblp" 1
   3  0000              #pragma debug struct_end
   3  0000              #pragma debug struct_end
   3  0000              #pragma debug union_end
   3  0000              #pragma debug union_end
   3  0000              #pragma debug variable 48 1 ___integ "__integ" 1
"File: hal_rf.c      Assembler  Version HGASM0202      Page 16

   3  0000              #pragma debug struct_end
   3  0000              #pragma debug struct_end
   3  0000              #pragma debug union_end
   3  0000              #pragma debug union_end
   3  0000              #pragma debug variable 50 1 ___intc0 "__intc0" 1
   3  0000              #pragma debug struct_end
   3  0000              #pragma debug struct_end
   3  0000              #pragma debug union_end
   3  0000              #pragma debug union_end
   3  0000              #pragma debug variable 52 1 ___intc1 "__intc1" 1
   3  0000              #pragma debug struct_end
   3  0000              #pragma debug struct_end
   3  0000              #pragma debug union_end
   3  0000              #pragma debug union_end
   3  0000              #pragma debug variable 54 1 ___pa "__pa" 1
   3  0000              #pragma debug struct_end
   3  0000              #pragma debug struct_end
   3  0000              #pragma debug union_end
   3  0000              #pragma debug union_end
   3  0000              #pragma debug variable 56 1 ___pac "__pac" 1
   3  0000              #pragma debug struct_end
   3  0000              #pragma debug struct_end
   3  0000              #pragma debug union_end
   3  0000              #pragma debug union_end
   3  0000              #pragma debug variable 58 1 ___papu "__papu" 1
   3  0000              #pragma debug struct_end
   3  0000              #pragma debug struct_end
   3  0000              #pragma debug union_end
   3  0000              #pragma debug union_end
   3  0000              #pragma debug variable 60 1 ___pawu "__pawu" 1
   3  0000              #pragma debug struct_end
   3  0000              #pragma debug struct_end
   3  0000              #pragma debug union_end
   3  0000              #pragma debug union_end
   3  0000              #pragma debug variable 62 1 ___lvdc "__lvdc" 1
   3  0000              #pragma debug struct_end
   3  0000              #pragma debug struct_end
   3  0000              #pragma debug union_end
   3  0000              #pragma debug union_end
   3  0000              #pragma debug variable 64 1 ___scc "__scc" 1
   3  0000              #pragma debug struct_end
   3  0000              #pragma debug struct_end
   3  0000              #pragma debug union_end
   3  0000              #pragma debug union_end
   3  0000              #pragma debug variable 66 1 ___wdtc "__wdtc" 1
   3  0000              #pragma debug struct_end
   3  0000              #pragma debug struct_end
   3  0000              #pragma debug union_end
   3  0000              #pragma debug union_end
   3  0000              #pragma debug variable 68 1 ___tb0c "__tb0c" 1
   3  0000              #pragma debug struct_end
   3  0000              #pragma debug struct_end
   3  0000              #pragma debug union_end
   3  0000              #pragma debug union_end
   3  0000              #pragma debug variable 70 1 ___hircc "__hircc" 1
   3  0000              #pragma debug struct_end
   3  0000              #pragma debug struct_end
   3  0000              #pragma debug union_end
   3  0000              #pragma debug union_end
   3  0000              #pragma debug variable 72 1 ___pb "__pb" 1
"File: hal_rf.c      Assembler  Version HGASM0202      Page 17

   3  0000              #pragma debug struct_end
   3  0000              #pragma debug struct_end
   3  0000              #pragma debug union_end
   3  0000              #pragma debug union_end
   3  0000              #pragma debug variable 74 1 ___pbc "__pbc" 1
   3  0000              #pragma debug struct_end
   3  0000              #pragma debug struct_end
   3  0000              #pragma debug union_end
   3  0000              #pragma debug union_end
   3  0000              #pragma debug variable 76 1 ___pbpu "__pbpu" 1
   3  0000              #pragma debug struct_end
   3  0000              #pragma debug struct_end
   3  0000              #pragma debug union_end
   3  0000              #pragma debug union_end
   3  0000              #pragma debug variable 78 1 ___pc "__pc" 1
   3  0000              #pragma debug struct_end
   3  0000              #pragma debug struct_end
   3  0000              #pragma debug union_end
   3  0000              #pragma debug union_end
   3  0000              #pragma debug variable 80 1 ___pcc "__pcc" 1
   3  0000              #pragma debug struct_end
   3  0000              #pragma debug struct_end
   3  0000              #pragma debug union_end
   3  0000              #pragma debug union_end
   3  0000              #pragma debug variable 82 1 ___pcpu "__pcpu" 1
   3  0000              #pragma debug struct_end
   3  0000              #pragma debug struct_end
   3  0000              #pragma debug union_end
   3  0000              #pragma debug union_end
   3  0000              #pragma debug variable 84 1 ___ifs "__ifs" 1
   3  0000              #pragma debug struct_end
   3  0000              #pragma debug struct_end
   3  0000              #pragma debug union_end
   3  0000              #pragma debug union_end
   3  0000              #pragma debug variable 86 1 ___pd "__pd" 1
   3  0000              #pragma debug struct_end
   3  0000              #pragma debug struct_end
   3  0000              #pragma debug union_end
   3  0000              #pragma debug union_end
   3  0000              #pragma debug variable 88 1 ___pdc "__pdc" 1
   3  0000              #pragma debug struct_end
   3  0000              #pragma debug struct_end
   3  0000              #pragma debug union_end
   3  0000              #pragma debug union_end
   3  0000              #pragma debug variable 90 1 ___pdpu "__pdpu" 1
   3  0000              #pragma debug struct_end
   3  0000              #pragma debug struct_end
   3  0000              #pragma debug union_end
   3  0000              #pragma debug union_end
   3  0000              #pragma debug variable 92 1 ___pas0 "__pas0" 1
   3  0000              #pragma debug struct_end
   3  0000              #pragma debug struct_end
   3  0000              #pragma debug union_end
   3  0000              #pragma debug union_end
   3  0000              #pragma debug variable 94 1 ___pas1 "__pas1" 1
   3  0000              #pragma debug struct_end
   3  0000              #pragma debug struct_end
   3  0000              #pragma debug union_end
   3  0000              #pragma debug union_end
   3  0000              #pragma debug variable 96 1 ___pbs0 "__pbs0" 1
"File: hal_rf.c      Assembler  Version HGASM0202      Page 18

   3  0000              #pragma debug struct_end
   3  0000              #pragma debug struct_end
   3  0000              #pragma debug union_end
   3  0000              #pragma debug union_end
   3  0000              #pragma debug variable 98 1 ___pbs1 "__pbs1" 1
   3  0000              #pragma debug struct_end
   3  0000              #pragma debug struct_end
   3  0000              #pragma debug union_end
   3  0000              #pragma debug union_end
   3  0000              #pragma debug variable 100 1 ___pcs0 "__pcs0" 1
   3  0000              #pragma debug struct_end
   3  0000              #pragma debug struct_end
   3  0000              #pragma debug union_end
   3  0000              #pragma debug union_end
   3  0000              #pragma debug variable 102 1 ___pcs1 "__pcs1" 1
   3  0000              #pragma debug struct_end
   3  0000              #pragma debug struct_end
   3  0000              #pragma debug union_end
   3  0000              #pragma debug union_end
   3  0000              #pragma debug variable 104 1 ___pds0 "__pds0" 1
   3  0000              #pragma debug struct_end
   3  0000              #pragma debug struct_end
   3  0000              #pragma debug union_end
   3  0000              #pragma debug union_end
   3  0000              #pragma debug variable 106 1 ___psc0r "__psc0r" 1
   3  0000              #pragma debug variable 8 1 ___iar1 "__iar1" 1
   3  0000              
   3  0000              ; output external variables
   3  0000              extern _RF_RXFIFO:byte
   3  0000              extern _RF_TXFIFO:byte
   3  0000              extern _intF:byte
   3  0000              extern _BC3602_T:byte
   3  0000              extern r1:byte
   3  0000              extern r2:byte
   3  0000              extern _RF_Init:near
   3  0000              extern _RF_Parameter_loading:near
   3  0000              extern _uart_printf_2:byte
   3  0000              extern _uart_printf:near
   3  0000              extern _uart_send:near
   3  0000              
   3  0000              ; 
   3  0000              ; Generated by holtek-gcc v3.19, Mon Oct 17 12:40:03 2022
   3  0000              ; Rebuild 718
   3  0000              ; end of file


        0 Errors, 0