"File: hal_eeprom.c  Assembler  Version HGASM0202      Page 1


   1  0000              ; Generated by holtek-gcc v3.19, Mon Oct 17 12:40:04 2022
   2  0000              ; 
   3  0000              ; Configuration:
   4  0000              ;       with long instruction
   5  0000              ;       Single ROM, Multi-RAM
   6  0000              ;       bits_per_rom_unit:16
   7  0000              ;       with mp1
   8  0000              ;       with tbhp, address(0x9)
   9  0000              ;          Use tabrd-const
  10  0000              ;       
  11  0000              ; SFR address of long-instruction arch:
  12  0000              ;    mp0 = -1,1,0
  13  0000              ;    mp1 = 4,3,2
  14  0000              ;    mp2 = 14,13,12
  15  0000              ;    tbp = 9,7,8
  16  0000              ;    acc = 5
  17  0000              ;    pcl = 6
  18  0000              ;    status = 10
  19  0000              ;    bp = 11
  20  0000              ;    intc = 17
  21  0000              ;       
  22  0000              ;       
  23  0000              ; use 'tabrdc' instead of 'tabrd'
  24  0000              ;       
  25  0000              
  26  0000              #pragma translator "holtek-gcc 4.6.4" "3.19" "build 20130711"
  27  0000              ; Rebuild 718
  28  0000              
  29  0000              ir equ [2]
  30  0000              mp equ [3]
  31  0000              sbp equ [4]
  32  0000              acc equ [5]
  33  0000              bp equ [11]
  34  0000              tblp equ [7]
  35  0000              tbhp equ [9]
  36  0000              status equ [10]
  37  0000              c equ [10].0
  38  0000              ac equ [10].1
  39  0000              z equ [10].2
  40  0000              ov equ [10].3
  41  0000              cz equ [10].6
  42  0000              sc equ [10].7
  43  0000              intc equ [17]
  44  0000              
  45  0000              extern ra:byte
  46  0000              extern rb:byte
  47  0000              extern rc:byte
  48  0000              extern rd:byte
  49  0000              extern re:byte
  50  0000              extern rf:byte
  51  0000              extern rg:byte
  52  0000              extern rh:byte
  53  0000              extern _Crom2Prom:near
  54  0000              extern _Crom2PromNext:near
  55  0000              
  56  0000              RAMBANK 0 @BITDATASEC, @BITDATASEC1
  57  0000              @HCCINIT	.section 'data'
  58  0000              @HCCINIT0	.section 'data'
  59  0000              @BITDATASEC	 .section 'data'
"File: hal_eeprom.ASM  Assembler  Version HGASM0202      Page 2

  60  0000              @BITDATASEC1	 .section 'data'
  61  0000              
  62  0000              #pragma debug scope 1 1
  63  0000              	extern __DELAY3:near
  64  0000              	extern __DELAYX3:near
  65  0000              	extern __DELAYX6:near
  66  0000              	extern __DELAYY5:near
  67  0000              	extern __DELAYY3:near
  68  0000              	extern _builtin_holtek_delay_2:byte
  69  0000              ___eec equ [320]
  70  0000              ___mp1h equ [4]
  71  0000              public _eeprom_init
  72  0000              #pragma debug scope 2 1

   7  0000              #line 7 "c:\users\user\documents\htk_project\qbell_master_mb_v1_2_f10\hal_eeprom.c"
   7  0000              _eeprom_init .section 'code'
   7  0000              _eeprom_init proc
   8  0000              #line 8 "c:\users\user\documents\htk_project\qbell_master_mb_v1_2_f10\hal_eeprom.c"
   8  0000  B540 0001   	lclr [320].2
   9  0002              #line 9 "c:\users\user\documents\htk_project\qbell_master_mb_v1_2_f10\hal_eeprom.c"
   9  0002  1F04        	clr [4]
   9  0003  0003        	ret
   9  0004              _eeprom_init endp
   9  0004              #line 9 "c:\users\user\documents\htk_project\qbell_master_mb_v1_2_f10\hal_eeprom.c"
   9  0004              #pragma debug scope 1 1
   9  0004              ___intc0 equ [17]
   9  0004              ___eea equ [30]
   9  0004              ___eed equ [31]
   9  0004              ___mp1l equ [3]
   9  0004              ___iar1 equ [2]
   9  0004              public _eeprom_write
   9  0004              #pragma debug scope 3 1
  13  0004              #line 13 "c:\users\user\documents\htk_project\qbell_master_mb_v1_2_f10\hal_eeprom.c"
  13  0000              _eeprom_write .section 'code'
  13  0000              _eeprom_write proc
  13  0000              public _eeprom_write_2
  13  0000  0002[           local _eeprom_write_2 db 2 dup(?)	; 1,1
            00
            ]
  13  0000  0080     R  	mov _eeprom_write_2[1],a
  13  0001              #pragma debug variable 8 3 _eeprom_write_2+1 "addrC"
  13  0001              #pragma debug variable 8 3 _eeprom_write_2+0 "byteValue"
  43  0001              #line 43 "c:\users\user\documents\htk_project\qbell_master_mb_v1_2_f10\hal_eeprom.c"
  43  0001  0711        	mov a,[17]
  43  0002  0E01        	and a,1
  43  0003  0080     E  	mov ra,a
  44  0004              #line 44 "c:\users\user\documents\htk_project\qbell_master_mb_v1_2_f10\hal_eeprom.c"
  44  0004  3411        	clr [17].0
  46  0005              #line 46 "c:\users\user\documents\htk_project\qbell_master_mb_v1_2_f10\hal_eeprom.c"
  46  0005  0700     R  	mov a,_eeprom_write_2[1]
  46  0006  009E        	mov [30],a
  47  0007              #line 47 "c:\users\user\documents\htk_project\qbell_master_mb_v1_2_f10\hal_eeprom.c"
  47  0007  0700     R  	mov a,_eeprom_write_2[0]
  47  0008  009F        	mov [31],a
  48  0009              #line 48 "c:\users\user\documents\htk_project\qbell_master_mb_v1_2_f10\hal_eeprom.c"
  48  0009  0F40        	mov a,64
  48  000A  0083        	mov [3],a
  49  000B              #line 49 "c:\users\user\documents\htk_project\qbell_master_mb_v1_2_f10\hal_eeprom.c"
  49  000B  0F01        	mov a,1
  49  000C  0084        	mov [4],a
"File: hal_eeprom.c  Assembler  Version HGASM0202      Page 3

  52  000D              #line 52 "c:\users\user\documents\htk_project\qbell_master_mb_v1_2_f10\hal_eeprom.c"
  52  000D  3182        	set [2].3
  53  000E              #line 53 "c:\users\user\documents\htk_project\qbell_master_mb_v1_2_f10\hal_eeprom.c"
  53  000E  3102        	set [2].2
  53  000F              _L4:
  55  000F              #line 55 "c:\users\user\documents\htk_project\qbell_master_mb_v1_2_f10\hal_eeprom.c"
  55  000F  3D02        	sz [2].2
  55  0010  2800     R  	jmp _L4
  56  0011              #line 56 "c:\users\user\documents\htk_project\qbell_master_mb_v1_2_f10\hal_eeprom.c"
  56  0011  3411        	clr [17].0
  56  0012  0700     E  	mov a,ra
  56  0013  0591        	orm a,[17]
  57  0014              #line 57 "c:\users\user\documents\htk_project\qbell_master_mb_v1_2_f10\hal_eeprom.c"
  57  0014  1F02        	clr [2]
  58  0015              #line 58 "c:\users\user\documents\htk_project\qbell_master_mb_v1_2_f10\hal_eeprom.c"
  58  0015  1F04        	clr [4]
  58  0016  0003        	ret
  58  0017              _eeprom_write endp
  58  0017              #line 58 "c:\users\user\documents\htk_project\qbell_master_mb_v1_2_f10\hal_eeprom.c"
  58  0017              #pragma debug scope 1 1
  58  0017              public _eeprom_read
  58  0017              #pragma debug scope 4 1
  65  0017              #line 65 "c:\users\user\documents\htk_project\qbell_master_mb_v1_2_f10\hal_eeprom.c"
  65  0000              _eeprom_read .section 'code'
  65  0000              _eeprom_read proc
  65  0000  0002[           local _eeprom_read_2 db 2 dup(?)	; 0,2
            00
            ]
  65  0000  0080     R  	mov _eeprom_read_2[0],a
  65  0001              #pragma debug variable 8 4 _eeprom_read_2+0 "addrV"
  88  0001              #line 88 "c:\users\user\documents\htk_project\qbell_master_mb_v1_2_f10\hal_eeprom.c"
  88  0001  0711        	mov a,[17]
  88  0002  0E01        	and a,1
  88  0003  0080     R  	mov _eeprom_read_2[1],a
  89  0004              #line 89 "c:\users\user\documents\htk_project\qbell_master_mb_v1_2_f10\hal_eeprom.c"
  89  0004  3411        	clr [17].0
  91  0005              #line 91 "c:\users\user\documents\htk_project\qbell_master_mb_v1_2_f10\hal_eeprom.c"
  91  0005  0700     R  	mov a,_eeprom_read_2[0]
  91  0006  009E        	mov [30],a
  92  0007              #line 92 "c:\users\user\documents\htk_project\qbell_master_mb_v1_2_f10\hal_eeprom.c"
  92  0007  0F40        	mov a,64
  92  0008  0083        	mov [3],a
  93  0009              #line 93 "c:\users\user\documents\htk_project\qbell_master_mb_v1_2_f10\hal_eeprom.c"
  93  0009  0F01        	mov a,1
  93  000A  0084        	mov [4],a
  94  000B              #line 94 "c:\users\user\documents\htk_project\qbell_master_mb_v1_2_f10\hal_eeprom.c"
  94  000B  0F0A        	mov a,10
  94  000C  0080     E  	mov _delay_2[0],a
  94  000D  1F00     E  	clr _delay_2[1]
  94  000E  2000     E  	call _delay
  98  000F              #line 98 "c:\users\user\documents\htk_project\qbell_master_mb_v1_2_f10\hal_eeprom.c"
  98  000F  3082        	set [2].1
  99  0010              #line 99 "c:\users\user\documents\htk_project\qbell_master_mb_v1_2_f10\hal_eeprom.c"
  99  0010  3002        	set [2].0
  99  0011              _L8:
 100  0011              #line 100 "c:\users\user\documents\htk_project\qbell_master_mb_v1_2_f10\hal_eeprom.c"
 100  0011  3C02        	sz [2].0
 100  0012  2800     R  	jmp _L8
 101  0013              #line 101 "c:\users\user\documents\htk_project\qbell_master_mb_v1_2_f10\hal_eeprom.c"
 101  0013  3411        	clr [17].0
"File: hal_eeprom.c  Assembler  Version HGASM0202      Page 4

 101  0014  0700     R  	mov a,_eeprom_read_2[1]
 101  0015  0591        	orm a,[17]
 102  0016              #line 102 "c:\users\user\documents\htk_project\qbell_master_mb_v1_2_f10\hal_eeprom.c"
 102  0016  1F02        	clr [2]
 103  0017              #line 103 "c:\users\user\documents\htk_project\qbell_master_mb_v1_2_f10\hal_eeprom.c"
 103  0017  1F04        	clr [4]
 104  0018              #line 104 "c:\users\user\documents\htk_project\qbell_master_mb_v1_2_f10\hal_eeprom.c"
 104  0018  071F        	mov a,[31]
 104  0019  0080     E  	mov ra,a
 108  001A              #line 108 "c:\users\user\documents\htk_project\qbell_master_mb_v1_2_f10\hal_eeprom.c"
 108  001A  0700     E  	mov a,ra
 108  001B  0003        	ret
 108  001C              _eeprom_read endp
 108  001C              #line 108 "c:\users\user\documents\htk_project\qbell_master_mb_v1_2_f10\hal_eeprom.c"
 108  001C              #pragma debug scope 1 1
 108  001C              public _eepromP1Write
 108  001C              #pragma debug scope 5 1
 111  001C              #line 111 "c:\users\user\documents\htk_project\qbell_master_mb_v1_2_f10\hal_eeprom.c"
 111  0000              _eepromP1Write .section 'code'
 111  0000              _eepromP1Write proc
 111  0000  0002[           local _eepromP1Write_2 db 2 dup(?)	; 0,2
            00
            ]
 111  0002              #pragma debug variable 8 5 _eepromP1Write_2+0 "i"
 114  0002              #line 114 "c:\users\user\documents\htk_project\qbell_master_mb_v1_2_f10\hal_eeprom.c"
 114  0000  0700     E  	mov a,_intF[12]
 114  0001  0080     E  	mov _intF[21],a
 114  0002  0700     E  	mov a,_intF[13]
 114  0003  0080     E  	mov _intF[22],a
 114  0004  0700     E  	mov a,_intF[14]
 114  0005  0080     E  	mov _intF[23],a
 114  0006  0700     E  	mov a,_intF[15]
 114  0007  0080     E  	mov _intF[24],a
 114  0008  0F04        	mov a,4
 114  0009  0080     R  	mov _eepromP1Write_2[1],a
 114  000A  0F04        	mov a,4
 114  000B  0080     R  	mov _eepromP1Write_2[0],a
 114  000C              _L11:
 117  000C              #line 117 "c:\users\user\documents\htk_project\qbell_master_mb_v1_2_f10\hal_eeprom.c"
 117  000C  0F00     E  	mov a,low (offset _intF+17)
 117  000D  0300     R  	add a,_eepromP1Write_2[0]
 117  000E  0083        	mov mp,a
 117  000F  0F00     E  	mov a,high (offset _intF+17)
 117  0010  1F04        	clr sbp
 117  0011  1384        	adcm a,sbp
 117  0012  2000     E  	call _Crom2Prom
 117  0013  0080     R  	mov _eeprom_write_2[0],a
 117  0014  0700     R  	mov a,_eepromP1Write_2[0]
 117  0015  2000     R  	call _eeprom_write
 116  0016              #line 116 "c:\users\user\documents\htk_project\qbell_master_mb_v1_2_f10\hal_eeprom.c"
 116  0016  1480     R  	inc _eepromP1Write_2[0]
 116  0017  1780     R  	sdz _eepromP1Write_2[1]
 116  0018  2800     R  	jmp _L11
 116  0019  0003        	ret
 116  001A              _eepromP1Write endp
 116  001A              #line 116 "c:\users\user\documents\htk_project\qbell_master_mb_v1_2_f10\hal_eeprom.c"
 116  001A              #pragma debug scope 1 1
 116  001A              public _eepromP1Read
 116  001A              #pragma debug scope 6 1
 121  001A              #line 121 "c:\users\user\documents\htk_project\qbell_master_mb_v1_2_f10\hal_eeprom.c"
"File: hal_eeprom.c  Assembler  Version HGASM0202      Page 5

 121  0000              _eepromP1Read .section 'code'
 121  0000              _eepromP1Read proc
 121  0000  0002[           local _eepromP1Read_2 db 2 dup(?)	; 0,2
            00
            ]
 121  0002              #pragma debug variable 8 6 _eepromP1Read_2+0 "i"
 121  0000  0F04        	mov a,4
 121  0001  0080     R  	mov _eepromP1Read_2[1],a
 123  0002              #line 123 "c:\users\user\documents\htk_project\qbell_master_mb_v1_2_f10\hal_eeprom.c"
 123  0002  0F04        	mov a,4
 123  0003  0080     R  	mov _eepromP1Read_2[0],a
 123  0004              _L14:
 124  0004              #line 124 "c:\users\user\documents\htk_project\qbell_master_mb_v1_2_f10\hal_eeprom.c"
 124  0004  0700     R  	mov a,_eepromP1Read_2[0]
 124  0005  2000     R  	call _eeprom_read
 124  0006  0080     E  	mov ra,a
 124  0007  0F00     E  	mov a,low (offset _intF+17)
 124  0008  0300     R  	add a,_eepromP1Read_2[0]
 124  0009  0083        	mov mp,a
 124  000A  0F00     E  	mov a,high (offset _intF+17)
 124  000B  1F04        	clr sbp
 124  000C  1384        	adcm a,sbp
 124  000D  0700     E  	mov a,ra
 124  000E  0082        	mov ir,a
 123  000F              #line 123 "c:\users\user\documents\htk_project\qbell_master_mb_v1_2_f10\hal_eeprom.c"
 123  000F  1480     R  	inc _eepromP1Read_2[0]
 123  0010  1780     R  	sdz _eepromP1Read_2[1]
 123  0011  2800     R  	jmp _L14
 123  0012  0003        	ret
 123  0013              _eepromP1Read endp
 123  0013              #line 123 "c:\users\user\documents\htk_project\qbell_master_mb_v1_2_f10\hal_eeprom.c"
 123  0013              #pragma debug scope 1 1
 123  0013              public _eepromPstatusCheck
 123  0013              #pragma debug scope 7 1
 128  0013              #line 128 "c:\users\user\documents\htk_project\qbell_master_mb_v1_2_f10\hal_eeprom.c"
 128  0000              _eepromPstatusCheck .section 'code'
 128  0000              _eepromPstatusCheck proc
 129  0000              #line 129 "c:\users\user\documents\htk_project\qbell_master_mb_v1_2_f10\hal_eeprom.c"
 129  0000  0F08        	mov a,8
 129  0001  2000     R  	call _eeprom_read
 129  0002  0080     E  	mov ra,a
 129  0003  0700     E  	mov a,ra
 129  0004  0080     E  	mov _intF[26],a
 129  0005  0003        	ret
 129  0006              _eepromPstatusCheck endp
 129  0006              #line 129 "c:\users\user\documents\htk_project\qbell_master_mb_v1_2_f10\hal_eeprom.c"
 129  0006              #pragma debug scope 1 1
 129  0006              public _eepromPstatusWrite
 129  0006              #pragma debug scope 8 1
 133  0006              #line 133 "c:\users\user\documents\htk_project\qbell_master_mb_v1_2_f10\hal_eeprom.c"
 133  0000              _eepromPstatusWrite .section 'code'
 133  0000              _eepromPstatusWrite proc
 133  0000  00              local _eepromPstatusWrite_2 db 1 dup(?)	; 0,1
 133  0000  0080     E  	mov ra,a
 133  0001              #pragma debug variable 8 8 _eepromPstatusWrite_2+0 "payloadByte"
 134  0001              #line 134 "c:\users\user\documents\htk_project\qbell_master_mb_v1_2_f10\hal_eeprom.c"
 134  0001  0700     E  	mov a,ra
 134  0002  0080     R  	mov _eeprom_write_2[0],a
 134  0003  0F08        	mov a,8
 134  0004  2000     R  	call _eeprom_write
"File: hal_eeprom.c  Assembler  Version HGASM0202      Page 6

 134  0005  0003        	ret
 134  0006              _eepromPstatusWrite endp
 134  0006              #line 134 "c:\users\user\documents\htk_project\qbell_master_mb_v1_2_f10\hal_eeprom.c"
 134  0006              #pragma debug scope 1 1
 134  0006              public _eepromUnpairDevice
 134  0006              #pragma debug scope 9 1
 138  0006              #line 138 "c:\users\user\documents\htk_project\qbell_master_mb_v1_2_f10\hal_eeprom.c"
 138  0000              _eepromUnpairDevice .section 'code'
 138  0000              _eepromUnpairDevice proc
 138  0000  00              local _eepromUnpairDevice_2 db 1 dup(?)	; 0,1
 138  0001              #pragma debug variable 8 9 _eepromUnpairDevice_2+0 "i"
 140  0001              #line 140 "c:\users\user\documents\htk_project\qbell_master_mb_v1_2_f10\hal_eeprom.c"
 140  0000  0F04        	mov a,4
 140  0001  0080     R  	mov _eepromUnpairDevice_2[0],a
 140  0002              _L19:
 141  0002              #line 141 "c:\users\user\documents\htk_project\qbell_master_mb_v1_2_f10\hal_eeprom.c"
 141  0002  1F00     R  	clr _eeprom_write_2[0]
 141  0003  0700     R  	mov a,_eepromUnpairDevice_2[0]
 141  0004  2000     R  	call _eeprom_write
 140  0005              #line 140 "c:\users\user\documents\htk_project\qbell_master_mb_v1_2_f10\hal_eeprom.c"
 140  0005  1480     R  	inc _eepromUnpairDevice_2[0]
 140  0006  0700     R  	mov a,_eepromUnpairDevice_2[0]
 140  0007  0A0E        	sub a,14
 140  0008  390A        	snz z
 140  0009  2800     R  	jmp _L19
 140  000A  0003        	ret
 140  000B              _eepromUnpairDevice endp
 140  000B              #line 140 "c:\users\user\documents\htk_project\qbell_master_mb_v1_2_f10\hal_eeprom.c"
 140  000B              #pragma debug scope 1 1
 140  0000              @crom	.section 'crom'
 140  0000              _LC0:
 140  0000              	db 041h,064h,064h,072h,065h,073h,073h,020h,069h,073h
 140  0005              	db 020h,073h,074h,06fh,072h,065h,064h,020h,069h,06eh
 140  000A              	db 020h,074h,068h,065h,020h,045h,045h,050h,052h,04fh
 140  000F              	db 04dh,020h,061h,06ch,072h,065h,061h,064h,079h,0ah
 140  0014              	db 00h
 140  0015              @crom	.section 'crom'
 140  0015              _LC1:
 140  0015              	db 045h,045h,050h,052h,04fh,04dh,020h,044h,065h,076h
 140  001A              	db 069h,063h,065h,020h,041h,064h,064h,072h,065h,073h
 140  001F              	db 073h,020h,043h,06fh,070h,079h,020h,057h,072h,069h
 140  0024              	db 074h,065h,020h,069h,073h,020h,044h,06fh,06eh,065h
 140  0029              	db 0ah,00h
 140  002A              public _eepromDeviceAddrCpyCheck
 140  002A              #pragma debug scope 10 1
 146  002A              #line 146 "c:\users\user\documents\htk_project\qbell_master_mb_v1_2_f10\hal_eeprom.c"
 146  0000              _eepromDeviceAddrCpyCheck .section 'code'
 146  0000              _eepromDeviceAddrCpyCheck proc
 146  0000  0002[           local _eepromDeviceAddrCpyCheck_2 db 2 dup(?)	; 0,2
            00
            ]
 147  0002              #line 147 "c:\users\user\documents\htk_project\qbell_master_mb_v1_2_f10\hal_eeprom.c"
 147  0000  0F04        	mov a,4
 147  0001  2000     R  	call _eeprom_read
 147  0002  0080     E  	mov ra,a
 147  0003  0700     E  	mov a,ra
 147  0004  0080     E  	mov _intF[32],a
 149  0005              #line 149 "c:\users\user\documents\htk_project\qbell_master_mb_v1_2_f10\hal_eeprom.c"
 149  0005  0700     E  	mov a,ra
 149  0006  0A08        	sub a,8
"File: hal_eeprom.c  Assembler  Version HGASM0202      Page 7

 149  0007  390A        	snz z
 149  0008  2800     R  	jmp _L21
 151  0009              #line 151 "c:\users\user\documents\htk_project\qbell_master_mb_v1_2_f10\hal_eeprom.c"
 151  0009  0F00     R  	mov a,low offset _LC0
 151  000A  0080     E  	mov _uart_printf_2[0],a
 151  000B  0F00     R  	mov a,high offset _LC0
 151  000C  0080     E  	mov _uart_printf_2[1],a
 151  000D  2800     R  	jmp _L25
 151  000E              _L21:
 149  000E              #line 149 "c:\users\user\documents\htk_project\qbell_master_mb_v1_2_f10\hal_eeprom.c"
 149  000E  0F04        	mov a,4
 149  000F  0080     R  	mov _eepromDeviceAddrCpyCheck_2[1],a
 149  0010  0F05        	mov a,5
 149  0011  0080     R  	mov _eepromDeviceAddrCpyCheck_2[0],a
 149  0012              _L24:
 149  0012              #pragma debug scope 11 10
 149  0012              ;begin block, line: 149.-1
 149  0012              #pragma debug variable 8 11 _eepromDeviceAddrCpyCheck_2+0 "i"
 157  0012              #line 157 "c:\users\user\documents\htk_project\qbell_master_mb_v1_2_f10\hal_eeprom.c"
 157  0012  0F00     E  	mov a,low (offset _intF+1)
 157  0013  0300     R  	add a,_eepromDeviceAddrCpyCheck_2[0]
 157  0014  0083        	mov mp,a
 157  0015  0F00     E  	mov a,high (offset _intF+1)
 157  0016  1F04        	clr sbp
 157  0017  1384        	adcm a,sbp
 157  0018  2000     E  	call _Crom2Prom
 157  0019  0080     R  	mov _eeprom_write_2[0],a
 157  001A  0700     R  	mov a,_eepromDeviceAddrCpyCheck_2[0]
 157  001B  2000     R  	call _eeprom_write
 156  001C              #line 156 "c:\users\user\documents\htk_project\qbell_master_mb_v1_2_f10\hal_eeprom.c"
 156  001C  1480     R  	inc _eepromDeviceAddrCpyCheck_2[0]
 156  001D  1780     R  	sdz _eepromDeviceAddrCpyCheck_2[1]
 156  001E  2800     R  	jmp _L24
 158  001F              #line 158 "c:\users\user\documents\htk_project\qbell_master_mb_v1_2_f10\hal_eeprom.c"
 158  001F  0F01        	mov a,1
 158  0020  0080     E  	mov _delay_2[0],a
 158  0021  1F00     E  	clr _delay_2[1]
 158  0022  2000     E  	call _delay
 159  0023              #line 159 "c:\users\user\documents\htk_project\qbell_master_mb_v1_2_f10\hal_eeprom.c"
 159  0023  0F08        	mov a,8
 159  0024  0080     R  	mov _eeprom_write_2[0],a
 159  0025  0F04        	mov a,4
 159  0026  2000     R  	call _eeprom_write
 160  0027              #line 160 "c:\users\user\documents\htk_project\qbell_master_mb_v1_2_f10\hal_eeprom.c"
 160  0027  0F00     R  	mov a,low offset _LC1
 160  0028  0080     E  	mov _uart_printf_2[0],a
 160  0029  0F00     R  	mov a,high offset _LC1
 160  002A  0080     E  	mov _uart_printf_2[1],a
 160  002B              _L25:
 160  002B  2000     E  	call _uart_printf
 160  002C              #pragma debug scope 10 1
 160  002C  0003        	ret
 160  002D              _eepromDeviceAddrCpyCheck endp
 160  002D              #line 160 "c:\users\user\documents\htk_project\qbell_master_mb_v1_2_f10\hal_eeprom.c"
 160  002D              #pragma debug scope 1 1
 160  002A              @crom	.section 'crom'
 160  002A              _LC2:
 160  002A              	db 045h,045h,050h,052h,04fh,04dh,020h,044h,065h,076h
 160  002F              	db 069h,063h,065h,020h,041h,064h,064h,072h,065h,073h
 160  0034              	db 073h,020h,063h,06fh,070h,079h,020h,052h,065h,061h
"File: hal_eeprom.c  Assembler  Version HGASM0202      Page 8

 160  0039              	db 064h,020h,044h,06fh,06eh,065h,0ah,00h
 160  003D              public _eepromDeviceAddrCpyRead
 160  003D              #pragma debug scope 12 1
 165  003D              #line 165 "c:\users\user\documents\htk_project\qbell_master_mb_v1_2_f10\hal_eeprom.c"
 165  0000              _eepromDeviceAddrCpyRead .section 'code'
 165  0000              _eepromDeviceAddrCpyRead proc
 165  0000  0002[           local _eepromDeviceAddrCpyRead_2 db 2 dup(?)	; 0,2
            00
            ]
 165  0002              #pragma debug variable 8 12 _eepromDeviceAddrCpyRead_2+0 "i"
 165  0000  0F04        	mov a,4
 165  0001  0080     R  	mov _eepromDeviceAddrCpyRead_2[1],a
 167  0002              #line 167 "c:\users\user\documents\htk_project\qbell_master_mb_v1_2_f10\hal_eeprom.c"
 167  0002  0F05        	mov a,5
 167  0003  0080     R  	mov _eepromDeviceAddrCpyRead_2[0],a
 167  0004              _L28:
 168  0004              #line 168 "c:\users\user\documents\htk_project\qbell_master_mb_v1_2_f10\hal_eeprom.c"
 168  0004  0700     R  	mov a,_eepromDeviceAddrCpyRead_2[0]
 168  0005  2000     R  	call _eeprom_read
 168  0006  0080     E  	mov ra,a
 168  0007  0F00     E  	mov a,low (offset _intF+28)
 168  0008  0300     R  	add a,_eepromDeviceAddrCpyRead_2[0]
 168  0009  0083        	mov mp,a
 168  000A  0F00     E  	mov a,high (offset _intF+28)
 168  000B  1F04        	clr sbp
 168  000C  1384        	adcm a,sbp
 168  000D  0700     E  	mov a,ra
 168  000E  0082        	mov ir,a
 167  000F              #line 167 "c:\users\user\documents\htk_project\qbell_master_mb_v1_2_f10\hal_eeprom.c"
 167  000F  1480     R  	inc _eepromDeviceAddrCpyRead_2[0]
 167  0010  1780     R  	sdz _eepromDeviceAddrCpyRead_2[1]
 167  0011  2800     R  	jmp _L28
 169  0012              #line 169 "c:\users\user\documents\htk_project\qbell_master_mb_v1_2_f10\hal_eeprom.c"
 169  0012  0F00     R  	mov a,low offset _LC2
 169  0013  0080     E  	mov _uart_printf_2[0],a
 169  0014  0F00     R  	mov a,high offset _LC2
 169  0015  0080     E  	mov _uart_printf_2[1],a
 169  0016  2000     E  	call _uart_printf
 169  0017  0003        	ret
 169  0018              _eepromDeviceAddrCpyRead endp
 169  0018              #line 169 "c:\users\user\documents\htk_project\qbell_master_mb_v1_2_f10\hal_eeprom.c"
 169  0018              #pragma debug scope 1 1
 169  0018              #pragma debug variable 8 1 ___mp1l "__mp1l" 1
 169  0018              #pragma debug variable 8 1 ___mp1h "__mp1h" 1
 169  0018              #pragma debug struct_end
 169  0018              #pragma debug struct_end
 169  0018              #pragma debug union_end
 169  0018              #pragma debug union_end
 169  0018              #pragma debug variable 43 1 ___intc0 "__intc0" 1
 169  0018              #pragma debug struct_end
 169  0018              #pragma debug struct_end
 169  0018              #pragma debug union_end
 169  0018              #pragma debug union_end
 169  0018              #pragma debug variable 45 1 ___eea "__eea" 1
 169  0018              #pragma debug variable 8 1 ___eed "__eed" 1
 169  0018              #pragma debug struct_end
 169  0018              #pragma debug struct_end
 169  0018              #pragma debug union_end
 169  0018              #pragma debug union_end
 169  0018              #pragma debug variable 47 1 ___eec "__eec" 1
"File: hal_eeprom.c  Assembler  Version HGASM0202      Page 9

 169  0018              #pragma debug variable 8 1 ___iar1 "__iar1" 1
 169  0018              
 169  0018              ; output external variables
 169  0018              extern _intF:byte
 169  0018              extern _delay_2:byte
 169  0018              extern _delay:near
 169  0018              extern _uart_printf_2:byte
 169  0018              extern _uart_printf:near
 169  0018              
 169  0018              ; 
 169  0018              ; Generated by holtek-gcc v3.19, Mon Oct 17 12:40:04 2022
 169  0018              ; Rebuild 718
 169  0018              ; end of file


        0 Errors, 0