"File: RF_API.c      Assembler  Version HGASM0202      Page 1


   1  0000              ; Generated by holtek-gcc v3.19, Mon Oct 17 12:40:01 2022
   2  0000              ; 
   3  0000              ; Configuration:
   4  0000              ;       with long instruction
   5  0000              ;       Single ROM, Multi-RAM
   6  0000              ;       bits_per_rom_unit:16
   7  0000              ;       with mp1
   8  0000              ;       with tbhp, address(0x9)
   9  0000              ;          Use tabrd-const
  10  0000              ;       
  11  0000              ; SFR address of long-instruction arch:
  12  0000              ;    mp0 = -1,1,0
  13  0000              ;    mp1 = 4,3,2
  14  0000              ;    mp2 = 14,13,12
  15  0000              ;    tbp = 9,7,8
  16  0000              ;    acc = 5
  17  0000              ;    pcl = 6
  18  0000              ;    status = 10
  19  0000              ;    bp = 11
  20  0000              ;    intc = 17
  21  0000              ;       
  22  0000              ;       
  23  0000              ; use 'tabrdc' instead of 'tabrd'
  24  0000              ;       
  25  0000              
  26  0000              #pragma translator "holtek-gcc 4.6.4" "3.19" "build 20130711"
  27  0000              ; Rebuild 718
  28  0000              
  29  0000              ir equ [2]
  30  0000              mp equ [3]
  31  0000              sbp equ [4]
  32  0000              acc equ [5]
  33  0000              bp equ [11]
  34  0000              tblp equ [7]
  35  0000              tbhp equ [9]
  36  0000              status equ [10]
  37  0000              c equ [10].0
  38  0000              ac equ [10].1
  39  0000              z equ [10].2
  40  0000              ov equ [10].3
  41  0000              cz equ [10].6
  42  0000              sc equ [10].7
  43  0000              intc equ [17]
  44  0000              
  45  0000              extern ra:byte
  46  0000              extern rb:byte
  47  0000              extern rc:byte
  48  0000              extern rd:byte
  49  0000              extern re:byte
  50  0000              extern rf:byte
  51  0000              extern rg:byte
  52  0000              extern rh:byte
  53  0000              extern _Crom2Prom:near
  54  0000              extern _Crom2PromNext:near
  55  0000              
  56  0000              RAMBANK 0 @BITDATASEC, @BITDATASEC1
  57  0000              @HCCINIT	.section 'data'
  58  0000              @HCCINIT0	.section 'data'
  59  0000              @BITDATASEC	 .section 'data'
"File: RF_API.ASM    Assembler  Version HGASM0202      Page 2

  60  0000              @BITDATASEC1	 .section 'data'
  61  0000              
  62  0000              #pragma debug scope 1 1
  63  0000              	extern __DELAY3:near
  64  0000              	extern __DELAYX3:near
  65  0000              	extern __DELAYX6:near
  66  0000              	extern __DELAYY5:near
  67  0000              	extern __DELAYY3:near
  68  0000              	extern _builtin_holtek_delay_2:byte
  69  0000              public _RF_Parameter_loading
  70  0000              #pragma debug scope 2 1

  25  0000              #line 25 "c:\users\user\documents\htk_project\qbell_master_mb_v1_2_f10\RF_API.c"
  25  0000              _RF_Parameter_loading .section 'code'
  25  0000              _RF_Parameter_loading proc
  25  0000  00              local _RF_Parameter_loading_2 db 1 dup(?)	; 0,1
  25  0001              #pragma debug variable 8 2 _RF_Parameter_loading_2+0 "mode_sts"
  27  0001              #line 27 "c:\users\user\documents\htk_project\qbell_master_mb_v1_2_f10\RF_API.c"
  27  0000  0F0C        	mov a,12
  27  0001  2000     E  	call _SpiWriteStrobeCMD
  28  0002              #line 28 "c:\users\user\documents\htk_project\qbell_master_mb_v1_2_f10\RF_API.c"
  28  0002  0700     R  	mov a,_BC3602_T[0]
  28  0003  0080     R  	mov _RF_Parameter_loading_2[0],a
  29  0004              #line 29 "c:\users\user\documents\htk_project\qbell_master_mb_v1_2_f10\RF_API.c"
  29  0004  0F02        	mov a,2
  29  0005  0080     R  	mov _BC3602_T[0],a
  30  0006              #line 30 "c:\users\user\documents\htk_project\qbell_master_mb_v1_2_f10\RF_API.c"
  30  0006  0F04        	mov a,4
  30  0007  0080     R  	mov _BC3602_T[5],a
  32  0008              #line 32 "c:\users\user\documents\htk_project\qbell_master_mb_v1_2_f10\RF_API.c"
  32  0008  0F00     R  	mov a,low offset _syncword
  32  0009  0080     E  	mov _RFReadBuf2_2[1],a
  32  000A  0F00     R  	mov a,high offset _syncword
  32  000B  0080     E  	mov _RFReadBuf2_2[2],a
  32  000C  0F04        	mov a,4
  32  000D  0080     E  	mov _RFReadBuf2_2[0],a
  32  000E  0F90        	mov a,144
  32  000F  2000     E  	call _RFReadBuf2
  33  0010              #line 33 "c:\users\user\documents\htk_project\qbell_master_mb_v1_2_f10\RF_API.c"
  33  0010  0F00     R  	mov a,low offset _syncword
  33  0011  0080     R  	mov _BC3602_T[3],a
  33  0012  0F00     R  	mov a,high offset _syncword
  33  0013  0080     R  	mov _BC3602_T[4],a
  35  0014              #line 35 "c:\users\user\documents\htk_project\qbell_master_mb_v1_2_f10\RF_API.c"
  35  0014  0F02        	mov a,2
  35  0015  0080     R  	mov _BC3602_T[7],a
  36  0016              #line 36 "c:\users\user\documents\htk_project\qbell_master_mb_v1_2_f10\RF_API.c"
  36  0016  0F03        	mov a,3
  36  0017  0080     R  	mov _BC3602_T[8],a
  38  0018              #line 38 "c:\users\user\documents\htk_project\qbell_master_mb_v1_2_f10\RF_API.c"
  38  0018  0F04        	mov a,4
  38  0019  2000     E  	call _SpiReadRegCMD
  38  001A  0080     E  	mov ra,a
  38  001B  0700     E  	mov a,ra
  38  001C  0080     R  	mov _BC3602_T[6],a
  40  001D              #line 40 "c:\users\user\documents\htk_project\qbell_master_mb_v1_2_f10\RF_API.c"
  40  001D  0F0B        	mov a,11
  40  001E  2000     E  	call _SpiReadRegCMD
  40  001F  0080     E  	mov ra,a
  40  0020  0700     E  	mov a,ra
"File: RF_API.c      Assembler  Version HGASM0202      Page 3

  40  0021  0080     R  	mov _BC3602_T[9],a
  41  0022              #line 41 "c:\users\user\documents\htk_project\qbell_master_mb_v1_2_f10\RF_API.c"
  41  0022  0F0F        	mov a,15
  41  0023  2000     E  	call _SpiReadRegCMD
  41  0024  0080     E  	mov ra,a
  41  0025  0700     E  	mov a,ra
  41  0026  0080     R  	mov _BC3602_T[10],a
  41  0027  1F00     R  	clr _BC3602_T[11]
  42  0028              #line 42 "c:\users\user\documents\htk_project\qbell_master_mb_v1_2_f10\RF_API.c"
  42  0028  0F00     E  	mov a,low offset _RF_TXFIFO
  42  0029  0080     R  	mov _BC3602_T[12],a
  42  002A  0F00     E  	mov a,high offset _RF_TXFIFO
  42  002B  0080     R  	mov _BC3602_T[13],a
  44  002C              #line 44 "c:\users\user\documents\htk_project\qbell_master_mb_v1_2_f10\RF_API.c"
  44  002C  0F0C        	mov a,12
  44  002D  2000     E  	call _SpiReadRegCMD
  44  002E  0080     E  	mov ra,a
  44  002F  0700     E  	mov a,ra
  44  0030  0E03        	and a,3
  44  0031  0080     R  	mov _BC3602_T[16],a
  45  0032              #line 45 "c:\users\user\documents\htk_project\qbell_master_mb_v1_2_f10\RF_API.c"
  45  0032  0700     R  	mov a,_BC3602_T[10]
  45  0033  0080     R  	mov _BC3602_T[17],a
  45  0034  0700     R  	mov a,_BC3602_T[11]
  45  0035  0080     R  	mov _BC3602_T[18],a
  46  0036              #line 46 "c:\users\user\documents\htk_project\qbell_master_mb_v1_2_f10\RF_API.c"
  46  0036  1F00     R  	clr _BC3602_T[19]
  46  0037  1F00     R  	clr _BC3602_T[20]
  47  0038              #line 47 "c:\users\user\documents\htk_project\qbell_master_mb_v1_2_f10\RF_API.c"
  47  0038  0F00     E  	mov a,low offset _RF_RXFIFO
  47  0039  0080     R  	mov _BC3602_T[21],a
  47  003A  0F00     E  	mov a,high offset _RF_RXFIFO
  47  003B  0080     R  	mov _BC3602_T[22],a
  50  003C              #line 50 "c:\users\user\documents\htk_project\qbell_master_mb_v1_2_f10\RF_API.c"
  50  003C  0700     R  	mov a,_RF_Parameter_loading_2[0]
  50  003D  0080     R  	mov _BC3602_T[0],a
  50  003E  0003        	ret
  50  003F              _RF_Parameter_loading endp
  50  003F              #line 50 "c:\users\user\documents\htk_project\qbell_master_mb_v1_2_f10\RF_API.c"
  50  003F              #pragma debug scope 1 1
  50  003F              ___pa equ [20]
  50  003F              public _ExtendFIFO_TX_Process
  50  003F              #pragma debug scope 3 1
 201  003F              #line 201 "c:\users\user\documents\htk_project\qbell_master_mb_v1_2_f10\RF_API.c"
 201  0000              _ExtendFIFO_TX_Process .section 'code'
 201  0000              _ExtendFIFO_TX_Process proc
 201  0000              public _ExtendFIFO_TX_Process_2
 201  0000  0003[           local _ExtendFIFO_TX_Process_2 db 3 dup(?)	; 2,1
            00
            ]
 201  0003              #pragma debug struct_end
 201  0003              #pragma debug struct_end
 201  0003              #pragma debug pointer 43 42 3
 201  0003              #pragma debug pointer 43 42 3
 201  0003              #pragma debug variable 43 3 _ExtendFIFO_TX_Process_2+0 "BC3602_T"
 205  0003              #line 205 "c:\users\user\documents\htk_project\qbell_master_mb_v1_2_f10\RF_API.c"
 205  0000  0F01        	mov a,1
 205  0001  0300     R  	add a,_ExtendFIFO_TX_Process_2[0]
 205  0002  0083        	mov mp,a
 205  0003  0F00        	mov a,0
"File: RF_API.c      Assembler  Version HGASM0202      Page 4

 205  0004  1300     R  	adc a,_ExtendFIFO_TX_Process_2[1]
 205  0005  0084        	mov sbp,a
 205  0006  2000     E  	call _Crom2Prom
 205  0007  0080     R  	mov _ExtendFIFO_TX_Process_2[2],a
 205  0008  1E00     R  	snz _ExtendFIFO_TX_Process_2[2]
 205  0009  2800     R  	jmp _L4
 205  000A              #line 205 "c:\users\user\documents\htk_project\qbell_master_mb_v1_2_f10\RF_API.c"
 205  000A  1700     R  	sdza _ExtendFIFO_TX_Process_2[2]
 205  000B  2800     R  	jmp _L2
 205  000C  2800     R  	jmp _L20
 205  000D              _L4:
 208  000D              #line 208 "c:\users\user\documents\htk_project\qbell_master_mb_v1_2_f10\RF_API.c"
 208  000D  0F0C        	mov a,12
 208  000E  2000     E  	call _SpiWriteStrobeCMD
 209  000F              #line 209 "c:\users\user\documents\htk_project\qbell_master_mb_v1_2_f10\RF_API.c"
 209  000F  0700     R  	mov a,_ExtendFIFO_TX_Process_2[0]
 209  0010  0083        	mov mp,a
 209  0011  0700     R  	mov a,_ExtendFIFO_TX_Process_2[1]
 209  0012  0084        	mov sbp,a
 209  0013  0F02        	mov a,2
 209  0014  0082        	mov ir,a
 210  0015              #line 210 "c:\users\user\documents\htk_project\qbell_master_mb_v1_2_f10\RF_API.c"
 210  0015  2000     E  	call _Extend_FIFO_Enable
 211  0016              #line 211 "c:\users\user\documents\htk_project\qbell_master_mb_v1_2_f10\RF_API.c"
 211  0016  0F2B        	mov a,43
 211  0017  2000     E  	call _SpiReadRegCMD
 211  0018  0080     E  	mov ra,a
 212  0019              #line 212 "c:\users\user\documents\htk_project\qbell_master_mb_v1_2_f10\RF_API.c"
 212  0019  3400     E  	clr ra.0
 212  001A  0700     E  	mov a,ra
 212  001B  0080     E  	mov _SpiWriteRegCMD_2[0],a
 212  001C  0F2B        	mov a,43
 212  001D  2000     E  	call _SpiWriteRegCMD
 214  001E              #line 214 "c:\users\user\documents\htk_project\qbell_master_mb_v1_2_f10\RF_API.c"
 214  001E  0F09        	mov a,9
 214  001F  0300     R  	add a,_ExtendFIFO_TX_Process_2[0]
 214  0020  0083        	mov mp,a
 214  0021  0F00        	mov a,0
 214  0022  1300     R  	adc a,_ExtendFIFO_TX_Process_2[1]
 214  0023  0084        	mov sbp,a
 214  0024  2000     E  	call _Crom2Prom
 214  0025  0080     E  	mov _SpiWriteRegCMD_2[0],a
 214  0026  0F0B        	mov a,11
 214  0027  2000     E  	call _SpiWriteRegCMD
 215  0028              #line 215 "c:\users\user\documents\htk_project\qbell_master_mb_v1_2_f10\RF_API.c"
 215  0028  0F0A        	mov a,10
 215  0029  0300     R  	add a,_ExtendFIFO_TX_Process_2[0]
 215  002A  0083        	mov mp,a
 215  002B  0F00        	mov a,0
 215  002C  1300     R  	adc a,_ExtendFIFO_TX_Process_2[1]
 215  002D  0084        	mov sbp,a
 215  002E  2000     E  	call _Crom2Prom
 215  002F  0080     R  	mov _ExtendFIFO_TX_Process_2[2],a
 216  0030              #line 216 "c:\users\user\documents\htk_project\qbell_master_mb_v1_2_f10\RF_API.c"
 216  0030  0F09        	mov a,9
 216  0031  2000     E  	call _SpiWriteStrobeCMD
 217  0032              #line 217 "c:\users\user\documents\htk_project\qbell_master_mb_v1_2_f10\RF_API.c"
 217  0032  1F00     E  	clr _SpiWriteRegCMD_2[0]
 217  0033  0F09        	mov a,9
 217  0034  2000     E  	call _SpiWriteRegCMD
"File: RF_API.c      Assembler  Version HGASM0202      Page 5

 218  0035              #line 218 "c:\users\user\documents\htk_project\qbell_master_mb_v1_2_f10\RF_API.c"
 218  0035  0F0A        	mov a,10
 218  0036  0300     R  	add a,_ExtendFIFO_TX_Process_2[0]
 218  0037  0083        	mov mp,a
 218  0038  0F00        	mov a,0
 218  0039  1300     R  	adc a,_ExtendFIFO_TX_Process_2[1]
 218  003A  0084        	mov sbp,a
 218  003B  2000     E  	call _Crom2Prom
 218  003C  0080     E  	mov _SpiWriteRegCMD_2[0],a
 218  003D  0F0F        	mov a,15
 218  003E  2000     E  	call _SpiWriteRegCMD
 219  003F              #line 219 "c:\users\user\documents\htk_project\qbell_master_mb_v1_2_f10\RF_API.c"
 219  003F  0F0A        	mov a,10
 219  0040  0200     R  	sub a,_ExtendFIFO_TX_Process_2[2]
 219  0041  3C0A        	sz c
 219  0042  2800     R  	jmp _L6
 221  0043              #line 221 "c:\users\user\documents\htk_project\qbell_master_mb_v1_2_f10\RF_API.c"
 221  0043  0F19        	mov a,25
 221  0044  0080     R  	mov _ExtendFIFO_TX_Process_2[2],a
 221  0045              _L6:
 237  0045              #line 237 "c:\users\user\documents\htk_project\qbell_master_mb_v1_2_f10\RF_API.c"
 237  0045  0F0C        	mov a,12
 237  0046  0300     R  	add a,_ExtendFIFO_TX_Process_2[0]
 237  0047  0083        	mov mp,a
 237  0048  0F00        	mov a,0
 237  0049  1300     R  	adc a,_ExtendFIFO_TX_Process_2[1]
 237  004A  0084        	mov sbp,a
 237  004B  2000     E  	call _Crom2Prom
 237  004C  0080     E  	mov _RFWriteBuf2_2[1],a
 237  004D  2000     E  	call _Crom2PromNext
 237  004E  0080     E  	mov _RFWriteBuf2_2[2],a
 237  004F  0700     R  	mov a,_ExtendFIFO_TX_Process_2[2]
 237  0050  0080     E  	mov _RFWriteBuf2_2[0],a
 237  0051  0F11        	mov a,17
 237  0052  2000     E  	call _RFWriteBuf2
 238  0053              #line 238 "c:\users\user\documents\htk_project\qbell_master_mb_v1_2_f10\RF_API.c"
 238  0053  0700     R  	mov a,_ExtendFIFO_TX_Process_2[2]
 238  0054  0080     E  	mov rb,a
 238  0055  1F00     E  	clr rc
 238  0056  0F13        	mov a,19
 238  0057  0300     R  	add a,_ExtendFIFO_TX_Process_2[0]
 238  0058  0083        	mov mp,a
 238  0059  0F00        	mov a,0
 238  005A  1300     R  	adc a,_ExtendFIFO_TX_Process_2[1]
 238  005B  0084        	mov sbp,a
 238  005C  0700     E  	mov a,rb
 238  005D  0082        	mov ir,a
 238  005E  1483        	inc mp
 238  005F  0700     E  	mov a,rc
 238  0060  0082        	mov ir,a
 239  0061              #line 239 "c:\users\user\documents\htk_project\qbell_master_mb_v1_2_f10\RF_API.c"
 239  0061  0F0E        	mov a,14
 239  0062  2000     E  	call _SpiWriteStrobeCMD
 240  0063              #line 240 "c:\users\user\documents\htk_project\qbell_master_mb_v1_2_f10\RF_API.c"
 240  0063  0700     R  	mov a,_ExtendFIFO_TX_Process_2[0]
 240  0064  0083        	mov mp,a
 240  0065  0700     R  	mov a,_ExtendFIFO_TX_Process_2[1]
 240  0066  0084        	mov sbp,a
 240  0067  0F04        	mov a,4
 240  0068  0082        	mov ir,a
"File: RF_API.c      Assembler  Version HGASM0202      Page 6

 241  0069              #line 241 "c:\users\user\documents\htk_project\qbell_master_mb_v1_2_f10\RF_API.c"
 241  0069  0F01        	mov a,1
 241  006A  0300     R  	add a,_ExtendFIFO_TX_Process_2[0]
 241  006B  0083        	mov mp,a
 241  006C  0F00        	mov a,0
 241  006D  1300     R  	adc a,_ExtendFIFO_TX_Process_2[1]
 241  006E  0084        	mov sbp,a
 241  006F  2000     E  	call _Crom2Prom
 241  0070  0080     R  	mov _ExtendFIFO_TX_Process_2[2],a
 241  0071  1400     R  	inca _ExtendFIFO_TX_Process_2[2]
 241  0072  0080     E  	mov ra,a
 241  0073  0700     E  	mov a,ra
 241  0074  0082        	mov ir,a
 242  0075              #line 242 "c:\users\user\documents\htk_project\qbell_master_mb_v1_2_f10\RF_API.c"
 242  0075  2800     R  	jmp _L2
 242  0076              _L20:
 245  0076              #line 245 "c:\users\user\documents\htk_project\qbell_master_mb_v1_2_f10\RF_API.c"
 245  0076  3C94        	sz [20].1
 245  0077  2800     R  	jmp _L7
 247  0078              #line 247 "c:\users\user\documents\htk_project\qbell_master_mb_v1_2_f10\RF_API.c"
 247  0078  0F04        	mov a,4
 247  0079  2000     E  	call _SpiReadRegCMD
 247  007A  0080     E  	mov ra,a
 247  007B  0F06        	mov a,6
 247  007C  0300     R  	add a,_ExtendFIFO_TX_Process_2[0]
 247  007D  0083        	mov mp,a
 247  007E  0F00        	mov a,0
 247  007F  1300     R  	adc a,_ExtendFIFO_TX_Process_2[1]
 247  0080  0084        	mov sbp,a
 247  0081  0700     E  	mov a,ra
 247  0082  0082        	mov ir,a
 247  0083              _L7:
 249  0083              #line 249 "c:\users\user\documents\htk_project\qbell_master_mb_v1_2_f10\RF_API.c"
 249  0083  0F06        	mov a,6
 249  0084  0300     R  	add a,_ExtendFIFO_TX_Process_2[0]
 249  0085  0083        	mov mp,a
 249  0086  0F00        	mov a,0
 249  0087  1300     R  	adc a,_ExtendFIFO_TX_Process_2[1]
 249  0088  0084        	mov sbp,a
 249  0089  2000     E  	call _Crom2Prom
 249  008A  0080     E  	mov ra,a
 249  008B  3800     E  	snz ra.5
 249  008C  2800     R  	jmp _L8
 251  008D              #line 251 "c:\users\user\documents\htk_project\qbell_master_mb_v1_2_f10\RF_API.c"
 251  008D  0F0A        	mov a,10
 251  008E  2000     E  	call _SpiReadRegCMD
 259  008F              #line 259 "c:\users\user\documents\htk_project\qbell_master_mb_v1_2_f10\RF_API.c"
 259  008F  0700     R  	mov a,_ExtendFIFO_TX_Process_2[0]
 259  0090  0080     E  	mov rb,a
 259  0091  0700     R  	mov a,_ExtendFIFO_TX_Process_2[1]
 259  0092  0080     E  	mov rc,a
 259  0093  0F0C        	mov a,12
 259  0094  0300     E  	add a,rb
 259  0095  0083        	mov mp,a
 259  0096  0F00        	mov a,0
 259  0097  1300     E  	adc a,rc
 259  0098  0084        	mov sbp,a
 259  0099  2000     E  	call _Crom2Prom
 259  009A  0080     E  	mov rd,a
 259  009B  2000     E  	call _Crom2PromNext
"File: RF_API.c      Assembler  Version HGASM0202      Page 7

 259  009C  0080     E  	mov re,a
 259  009D  0F13        	mov a,19
 259  009E  0300     E  	add a,rb
 259  009F  0083        	mov mp,a
 259  00A0  0F00        	mov a,0
 259  00A1  1300     E  	adc a,rc
 259  00A2  0084        	mov sbp,a
 259  00A3  2000     E  	call _Crom2Prom
 259  00A4  0080     E  	mov rb,a
 259  00A5  2000     E  	call _Crom2PromNext
 259  00A6  0080     E  	mov rc,a
 259  00A7  0700     E  	mov a,rb
 259  00A8  0300     E  	add a,rd
 259  00A9  0080     E  	mov _RFWriteBuf2_2[1],a
 259  00AA  0700     E  	mov a,rc
 259  00AB  1300     E  	adc a,re
 259  00AC  0080     E  	mov _RFWriteBuf2_2[2],a
 259  00AD  1F00     E  	clr _RFWriteBuf2_2[0]
 259  00AE  0F11        	mov a,17
 259  00AF  2000     E  	call _RFWriteBuf2
 261  00B0              #line 261 "c:\users\user\documents\htk_project\qbell_master_mb_v1_2_f10\RF_API.c"
 261  00B0  0F20        	mov a,32
 261  00B1  0080     E  	mov _SpiWriteRegCMD_2[0],a
 261  00B2  0F04        	mov a,4
 261  00B3  2000     E  	call _SpiWriteRegCMD
 262  00B4              #line 262 "c:\users\user\documents\htk_project\qbell_master_mb_v1_2_f10\RF_API.c"
 262  00B4  0F06        	mov a,6
 262  00B5  0300     R  	add a,_ExtendFIFO_TX_Process_2[0]
 262  00B6  0083        	mov mp,a
 262  00B7  0F00        	mov a,0
 262  00B8  1300     R  	adc a,_ExtendFIFO_TX_Process_2[1]
 262  00B9  0084        	mov sbp,a
 262  00BA  2000     E  	call _Crom2Prom
 262  00BB  0080     E  	mov ra,a
 262  00BC  3400     E  	clr ra.5
 262  00BD  0700     E  	mov a,ra
 262  00BE  0082        	mov ir,a
 262  00BF              _L8:
 264  00BF              #line 264 "c:\users\user\documents\htk_project\qbell_master_mb_v1_2_f10\RF_API.c"
 264  00BF  0700     R  	mov a,_ExtendFIFO_TX_Process_2[0]
 264  00C0  0080     E  	mov rb,a
 264  00C1  0700     R  	mov a,_ExtendFIFO_TX_Process_2[1]
 264  00C2  0080     E  	mov rc,a
 264  00C3  0F06        	mov a,6
 264  00C4  0300     E  	add a,rb
 264  00C5  0083        	mov mp,a
 264  00C6  0F00        	mov a,0
 264  00C7  1300     E  	adc a,rc
 264  00C8  0084        	mov sbp,a
 264  00C9  2000     E  	call _Crom2Prom
 264  00CA  0080     E  	mov ra,a
 264  00CB  3800     E  	snz ra.0
 264  00CC  2800     R  	jmp _L9
 266  00CD              #line 266 "c:\users\user\documents\htk_project\qbell_master_mb_v1_2_f10\RF_API.c"
 266  00CD  0F0E        	mov a,14
 266  00CE  0300     E  	add a,rb
 266  00CF  0083        	mov mp,a
 266  00D0  0F00        	mov a,0
 266  00D1  1300     E  	adc a,rc
 266  00D2  0084        	mov sbp,a
"File: RF_API.c      Assembler  Version HGASM0202      Page 8

 266  00D3  0F01        	mov a,1
 266  00D4  0082        	mov ir,a
 267  00D5              #line 267 "c:\users\user\documents\htk_project\qbell_master_mb_v1_2_f10\RF_API.c"
 267  00D5  0F01        	mov a,1
 267  00D6  0080     E  	mov _SpiWriteRegCMD_2[0],a
 267  00D7  0F04        	mov a,4
 267  00D8  2000     E  	call _SpiWriteRegCMD
 268  00D9              #line 268 "c:\users\user\documents\htk_project\qbell_master_mb_v1_2_f10\RF_API.c"
 268  00D9  0F0C        	mov a,12
 268  00DA  2000     E  	call _SpiWriteStrobeCMD
 269  00DB              #line 269 "c:\users\user\documents\htk_project\qbell_master_mb_v1_2_f10\RF_API.c"
 269  00DB  0700     R  	mov a,_ExtendFIFO_TX_Process_2[0]
 269  00DC  0083        	mov mp,a
 269  00DD  0700     R  	mov a,_ExtendFIFO_TX_Process_2[1]
 269  00DE  0084        	mov sbp,a
 269  00DF  0F02        	mov a,2
 269  00E0  0082        	mov ir,a
 270  00E1              #line 270 "c:\users\user\documents\htk_project\qbell_master_mb_v1_2_f10\RF_API.c"
 270  00E1  0F06        	mov a,6
 270  00E2  0300     R  	add a,_ExtendFIFO_TX_Process_2[0]
 270  00E3  0083        	mov mp,a
 270  00E4  0F00        	mov a,0
 270  00E5  1300     R  	adc a,_ExtendFIFO_TX_Process_2[1]
 270  00E6  0084        	mov sbp,a
 270  00E7  2000     E  	call _Crom2Prom
 270  00E8  0080     E  	mov ra,a
 270  00E9  3400     E  	clr ra.0
 270  00EA  0700     E  	mov a,ra
 270  00EB  0082        	mov ir,a
 270  00EC              _L9:
 280  00EC              #line 280 "c:\users\user\documents\htk_project\qbell_master_mb_v1_2_f10\RF_API.c"
 280  00EC  0F06        	mov a,6
 280  00ED  0300     R  	add a,_ExtendFIFO_TX_Process_2[0]
 280  00EE  0083        	mov mp,a
 280  00EF  0F00        	mov a,0
 280  00F0  1300     R  	adc a,_ExtendFIFO_TX_Process_2[1]
 280  00F1  0084        	mov sbp,a
 280  00F2  2000     E  	call _Crom2Prom
 280  00F3  0080     E  	mov ra,a
 280  00F4  1E00     E  	snz ra
 280  00F5  2800     R  	jmp _L2
 282  00F6              #line 282 "c:\users\user\documents\htk_project\qbell_master_mb_v1_2_f10\RF_API.c"
 282  00F6  0700     E  	mov a,ra
 282  00F7  0080     E  	mov _SpiWriteRegCMD_2[0],a
 282  00F8  0F04        	mov a,4
 282  00F9  2000     E  	call _SpiWriteRegCMD
 283  00FA              #line 283 "c:\users\user\documents\htk_project\qbell_master_mb_v1_2_f10\RF_API.c"
 283  00FA  0F06        	mov a,6
 283  00FB  0300     R  	add a,_ExtendFIFO_TX_Process_2[0]
 283  00FC  0083        	mov mp,a
 283  00FD  0F00        	mov a,0
 283  00FE  1300     R  	adc a,_ExtendFIFO_TX_Process_2[1]
 283  00FF  0084        	mov sbp,a
 283  0100  0F00        	mov a,0
 283  0101  0082        	mov ir,a
 283  0102              _L2:
 283  0102  0003        	ret
 283  0103              _ExtendFIFO_TX_Process endp
 283  0103              #line 283 "c:\users\user\documents\htk_project\qbell_master_mb_v1_2_f10\RF_API.c"
 283  0103              #pragma debug scope 1 1
"File: RF_API.c      Assembler  Version HGASM0202      Page 9

 283  0103              public _ExtendFIFO_RX_Process
 283  0103              #pragma debug scope 4 1
 298  0103              #line 298 "c:\users\user\documents\htk_project\qbell_master_mb_v1_2_f10\RF_API.c"
 298  0000              _ExtendFIFO_RX_Process .section 'code'
 298  0000              _ExtendFIFO_RX_Process proc
 298  0000              public _ExtendFIFO_RX_Process_2
 298  0000  0003[           local _ExtendFIFO_RX_Process_2 db 3 dup(?)	; 2,1
            00
            ]
 298  0003              #pragma debug struct_end
 298  0003              #pragma debug struct_end
 298  0003              #pragma debug pointer 45 44 4
 298  0003              #pragma debug pointer 45 44 4
 298  0003              #pragma debug variable 45 4 _ExtendFIFO_RX_Process_2+0 "BC3602_T"
 302  0003              #line 302 "c:\users\user\documents\htk_project\qbell_master_mb_v1_2_f10\RF_API.c"
 302  0000  0700     R  	mov a,_ExtendFIFO_RX_Process_2[0]
 302  0001  0080     E  	mov rb,a
 302  0002  0700     R  	mov a,_ExtendFIFO_RX_Process_2[1]
 302  0003  0080     E  	mov rc,a
 302  0004  0F01        	mov a,1
 302  0005  0300     E  	add a,rb
 302  0006  0083        	mov mp,a
 302  0007  0F00        	mov a,0
 302  0008  1300     E  	adc a,rc
 302  0009  0084        	mov sbp,a
 302  000A  2000     E  	call _Crom2Prom
 302  000B  0080     R  	mov _ExtendFIFO_RX_Process_2[2],a
 302  000C  1E00     R  	snz _ExtendFIFO_RX_Process_2[2]
 302  000D  2800     R  	jmp _L23
 302  000E              #line 302 "c:\users\user\documents\htk_project\qbell_master_mb_v1_2_f10\RF_API.c"
 302  000E  1700     R  	sdza _ExtendFIFO_RX_Process_2[2]
 302  000F  2800     R  	jmp _L21
 302  0010  2800     R  	jmp _L41
 302  0011              _L23:
 305  0011              #line 305 "c:\users\user\documents\htk_project\qbell_master_mb_v1_2_f10\RF_API.c"
 305  0011  0F06        	mov a,6
 305  0012  0300     E  	add a,rb
 305  0013  0083        	mov mp,a
 305  0014  0F00        	mov a,0
 305  0015  1300     E  	adc a,rc
 305  0016  0084        	mov sbp,a
 305  0017  0F00        	mov a,0
 305  0018  0082        	mov ir,a
 306  0019              #line 306 "c:\users\user\documents\htk_project\qbell_master_mb_v1_2_f10\RF_API.c"
 306  0019  0F13        	mov a,19
 306  001A  0300     R  	add a,_ExtendFIFO_RX_Process_2[0]
 306  001B  0083        	mov mp,a
 306  001C  0F00        	mov a,0
 306  001D  1300     R  	adc a,_ExtendFIFO_RX_Process_2[1]
 306  001E  0084        	mov sbp,a
 306  001F  1F02        	clr ir
 306  0020  1483        	inc mp
 306  0021  1F02        	clr ir
 307  0022              #line 307 "c:\users\user\documents\htk_project\qbell_master_mb_v1_2_f10\RF_API.c"
 307  0022  0F0C        	mov a,12
 307  0023  2000     E  	call _SpiWriteStrobeCMD
 308  0024              #line 308 "c:\users\user\documents\htk_project\qbell_master_mb_v1_2_f10\RF_API.c"
 308  0024  0700     R  	mov a,_ExtendFIFO_RX_Process_2[0]
 308  0025  0083        	mov mp,a
 308  0026  0700     R  	mov a,_ExtendFIFO_RX_Process_2[1]
"File: RF_API.c      Assembler  Version HGASM0202      Page 10

 308  0027  0084        	mov sbp,a
 308  0028  0F02        	mov a,2
 308  0029  0082        	mov ir,a
 310  002A              #line 310 "c:\users\user\documents\htk_project\qbell_master_mb_v1_2_f10\RF_API.c"
 310  002A  0F0A        	mov a,10
 310  002B  2000     E  	call _SpiReadRegCMD
 310  002C  0080     E  	mov ra,a
 310  002D  0FF0        	mov a,240
 310  002E  0680     E  	andm a,ra
 311  002F              #line 311 "c:\users\user\documents\htk_project\qbell_master_mb_v1_2_f10\RF_API.c"
 311  002F  0700     E  	mov a,ra
 311  0030  0D07        	or a,7
 311  0031  0080     E  	mov _SpiWriteRegCMD_2[0],a
 311  0032  0F0A        	mov a,10
 311  0033  2000     E  	call _SpiWriteRegCMD
 313  0034              #line 313 "c:\users\user\documents\htk_project\qbell_master_mb_v1_2_f10\RF_API.c"
 313  0034  0F32        	mov a,50
 313  0035  0080     E  	mov _SpiWriteRegCMD_2[0],a
 313  0036  0F03        	mov a,3
 313  0037  2000     E  	call _SpiWriteRegCMD
 315  0038              #line 315 "c:\users\user\documents\htk_project\qbell_master_mb_v1_2_f10\RF_API.c"
 315  0038  0F20        	mov a,32
 315  0039  2000     E  	call _SpiWriteStrobeCMD
 319  003A              #line 319 "c:\users\user\documents\htk_project\qbell_master_mb_v1_2_f10\RF_API.c"
 319  003A  0F2B        	mov a,43
 319  003B  2000     E  	call _SpiReadRegCMD
 319  003C  0080     E  	mov ra,a
 320  003D              #line 320 "c:\users\user\documents\htk_project\qbell_master_mb_v1_2_f10\RF_API.c"
 320  003D  3400     E  	clr ra.0
 320  003E  0700     E  	mov a,ra
 320  003F  0080     E  	mov _SpiWriteRegCMD_2[0],a
 320  0040  0F2B        	mov a,43
 320  0041  2000     E  	call _SpiWriteRegCMD
 322  0042              #line 322 "c:\users\user\documents\htk_project\qbell_master_mb_v1_2_f10\RF_API.c"
 322  0042  0F11        	mov a,17
 322  0043  0300     R  	add a,_ExtendFIFO_RX_Process_2[0]
 322  0044  0083        	mov mp,a
 322  0045  0F00        	mov a,0
 322  0046  1300     R  	adc a,_ExtendFIFO_RX_Process_2[1]
 322  0047  0084        	mov sbp,a
 322  0048  2000     E  	call _Crom2Prom
 322  0049  0080     E  	mov _ExtTxLength[0],a
 323  004A              #line 323 "c:\users\user\documents\htk_project\qbell_master_mb_v1_2_f10\RF_API.c"
 323  004A  0F89        	mov a,137
 323  004B  2000     E  	call _SpiWriteStrobeCMD
 324  004C              #line 324 "c:\users\user\documents\htk_project\qbell_master_mb_v1_2_f10\RF_API.c"
 324  004C  0700     E  	mov a,_ExtTxLength[0]
 324  004D  0080     E  	mov _SpiWriteRegCMD_2[0],a
 324  004E  0F10        	mov a,16
 324  004F  2000     E  	call _SpiWriteRegCMD
 333  0050              #line 333 "c:\users\user\documents\htk_project\qbell_master_mb_v1_2_f10\RF_API.c"
 333  0050  0F8E        	mov a,142
 333  0051  2000     E  	call _SpiWriteStrobeCMD
 334  0052              #line 334 "c:\users\user\documents\htk_project\qbell_master_mb_v1_2_f10\RF_API.c"
 334  0052  0700     R  	mov a,_ExtendFIFO_RX_Process_2[0]
 334  0053  0083        	mov mp,a
 334  0054  0700     R  	mov a,_ExtendFIFO_RX_Process_2[1]
 334  0055  0084        	mov sbp,a
 334  0056  0F05        	mov a,5
 334  0057  0082        	mov ir,a
"File: RF_API.c      Assembler  Version HGASM0202      Page 11

 336  0058              #line 336 "c:\users\user\documents\htk_project\qbell_master_mb_v1_2_f10\RF_API.c"
 336  0058  0F01        	mov a,1
 336  0059  0300     R  	add a,_ExtendFIFO_RX_Process_2[0]
 336  005A  0083        	mov mp,a
 336  005B  0F00        	mov a,0
 336  005C  1300     R  	adc a,_ExtendFIFO_RX_Process_2[1]
 336  005D  0084        	mov sbp,a
 336  005E  2000     E  	call _Crom2Prom
 336  005F  0080     R  	mov _ExtendFIFO_RX_Process_2[2],a
 336  0060  1400     R  	inca _ExtendFIFO_RX_Process_2[2]
 336  0061  0080     E  	mov ra,a
 336  0062  0700     E  	mov a,ra
 336  0063  0082        	mov ir,a
 337  0064              #line 337 "c:\users\user\documents\htk_project\qbell_master_mb_v1_2_f10\RF_API.c"
 337  0064  2800     R  	jmp _L21
 337  0065              _L41:
 342  0065              #line 342 "c:\users\user\documents\htk_project\qbell_master_mb_v1_2_f10\RF_API.c"
 342  0065  3C94        	sz [20].1
 342  0066  2800     R  	jmp _L25
 344  0067              #line 344 "c:\users\user\documents\htk_project\qbell_master_mb_v1_2_f10\RF_API.c"
 344  0067  0F04        	mov a,4
 344  0068  2000     E  	call _SpiReadRegCMD
 344  0069  0080     E  	mov ra,a
 344  006A  0F06        	mov a,6
 344  006B  0300     R  	add a,_ExtendFIFO_RX_Process_2[0]
 344  006C  0083        	mov mp,a
 344  006D  0F00        	mov a,0
 344  006E  1300     R  	adc a,_ExtendFIFO_RX_Process_2[1]
 344  006F  0084        	mov sbp,a
 344  0070  0700     E  	mov a,ra
 344  0071  0082        	mov ir,a
 344  0072              _L25:
 346  0072              #line 346 "c:\users\user\documents\htk_project\qbell_master_mb_v1_2_f10\RF_API.c"
 346  0072  0F06        	mov a,6
 346  0073  0300     R  	add a,_ExtendFIFO_RX_Process_2[0]
 346  0074  0083        	mov mp,a
 346  0075  0F00        	mov a,0
 346  0076  1300     R  	adc a,_ExtendFIFO_RX_Process_2[1]
 346  0077  0084        	mov sbp,a
 346  0078  2000     E  	call _Crom2Prom
 346  0079  0080     E  	mov ra,a
 346  007A  3800     E  	snz ra.5
 346  007B  2800     R  	jmp _L26
 348  007C              #line 348 "c:\users\user\documents\htk_project\qbell_master_mb_v1_2_f10\RF_API.c"
 348  007C  0F10        	mov a,16
 348  007D  2000     E  	call _SpiReadRegCMD
 348  007E  0080     R  	mov _ExtendFIFO_RX_Process_2[2],a
 349  007F              #line 349 "c:\users\user\documents\htk_project\qbell_master_mb_v1_2_f10\RF_API.c"
 349  007F  0700     E  	mov a,_ExtRxLength[0]
 349  0080  0200     R  	sub a,_ExtendFIFO_RX_Process_2[2]
 349  0081  0080     E  	mov _ExtRxLength[0],a
 350  0082              #line 350 "c:\users\user\documents\htk_project\qbell_master_mb_v1_2_f10\RF_API.c"
 350  0082  0700     R  	mov a,_ExtendFIFO_RX_Process_2[0]
 350  0083  0080     E  	mov rb,a
 350  0084  0700     R  	mov a,_ExtendFIFO_RX_Process_2[1]
 350  0085  0080     E  	mov rc,a
 350  0086  0F15        	mov a,21
 350  0087  0300     E  	add a,rb
 350  0088  0083        	mov mp,a
 350  0089  0F00        	mov a,0
"File: RF_API.c      Assembler  Version HGASM0202      Page 12

 350  008A  1300     E  	adc a,rc
 350  008B  0084        	mov sbp,a
 350  008C  2000     E  	call _Crom2Prom
 350  008D  0080     E  	mov rd,a
 350  008E  2000     E  	call _Crom2PromNext
 350  008F  0080     E  	mov re,a
 350  0090  0F13        	mov a,19
 350  0091  0300     E  	add a,rb
 350  0092  0083        	mov mp,a
 350  0093  0F00        	mov a,0
 350  0094  1300     E  	adc a,rc
 350  0095  0084        	mov sbp,a
 350  0096  2000     E  	call _Crom2Prom
 350  0097  0080     E  	mov rb,a
 350  0098  2000     E  	call _Crom2PromNext
 350  0099  0080     E  	mov rc,a
 350  009A  0700     E  	mov a,rb
 350  009B  0300     E  	add a,rd
 350  009C  0080     E  	mov _RFReadBuf2_2[1],a
 350  009D  0700     E  	mov a,rc
 350  009E  1300     E  	adc a,re
 350  009F  0080     E  	mov _RFReadBuf2_2[2],a
 350  00A0  0700     R  	mov a,_ExtendFIFO_RX_Process_2[2]
 350  00A1  0080     E  	mov _RFReadBuf2_2[0],a
 350  00A2  0F91        	mov a,145
 350  00A3  2000     E  	call _RFReadBuf2
 351  00A4              #line 351 "c:\users\user\documents\htk_project\qbell_master_mb_v1_2_f10\RF_API.c"
 351  00A4  0F13        	mov a,19
 351  00A5  0300     R  	add a,_ExtendFIFO_RX_Process_2[0]
 351  00A6  0080     E  	mov rb,a
 351  00A7  0F00        	mov a,0
 351  00A8  1300     R  	adc a,_ExtendFIFO_RX_Process_2[1]
 351  00A9  0080     E  	mov rc,a
 351  00AA  0700     E  	mov a,rb
 351  00AB  0083        	mov mp,a
 351  00AC  0700     E  	mov a,rc
 351  00AD  0084        	mov sbp,a
 351  00AE  2000     E  	call _Crom2Prom
 351  00AF  0080     E  	mov rd,a
 351  00B0  2000     E  	call _Crom2PromNext
 351  00B1  0080     E  	mov re,a
 351  00B2  0700     R  	mov a,_ExtendFIFO_RX_Process_2[2]
 351  00B3  0380     E  	addm a,rd
 351  00B4  3C0A        	sz c
 351  00B5  1480     E  	inc re
 351  00B6  0700     E  	mov a,rb
 351  00B7  0083        	mov mp,a
 351  00B8  0700     E  	mov a,rc
 351  00B9  0084        	mov sbp,a
 351  00BA  0700     E  	mov a,rd
 351  00BB  0082        	mov ir,a
 351  00BC  1483        	inc mp
 351  00BD  0700     E  	mov a,re
 351  00BE  0082        	mov ir,a
 352  00BF              #line 352 "c:\users\user\documents\htk_project\qbell_master_mb_v1_2_f10\RF_API.c"
 352  00BF  0F20        	mov a,32
 352  00C0  0080     E  	mov _SpiWriteRegCMD_2[0],a
 352  00C1  0F04        	mov a,4
 352  00C2  2000     E  	call _SpiWriteRegCMD
 353  00C3              #line 353 "c:\users\user\documents\htk_project\qbell_master_mb_v1_2_f10\RF_API.c"
"File: RF_API.c      Assembler  Version HGASM0202      Page 13

 353  00C3  0F06        	mov a,6
 353  00C4  0300     R  	add a,_ExtendFIFO_RX_Process_2[0]
 353  00C5  0083        	mov mp,a
 353  00C6  0F00        	mov a,0
 353  00C7  1300     R  	adc a,_ExtendFIFO_RX_Process_2[1]
 353  00C8  0084        	mov sbp,a
 353  00C9  2000     E  	call _Crom2Prom
 353  00CA  0080     E  	mov ra,a
 353  00CB  3400     E  	clr ra.5
 353  00CC  0700     E  	mov a,ra
 353  00CD  0082        	mov ir,a
 353  00CE              _L26:
 355  00CE              #line 355 "c:\users\user\documents\htk_project\qbell_master_mb_v1_2_f10\RF_API.c"
 355  00CE  0700     R  	mov a,_ExtendFIFO_RX_Process_2[0]
 355  00CF  0080     E  	mov rb,a
 355  00D0  0700     R  	mov a,_ExtendFIFO_RX_Process_2[1]
 355  00D1  0080     E  	mov rc,a
 355  00D2  0F06        	mov a,6
 355  00D3  0300     E  	add a,rb
 355  00D4  0083        	mov mp,a
 355  00D5  0F00        	mov a,0
 355  00D6  1300     E  	adc a,rc
 355  00D7  0084        	mov sbp,a
 355  00D8  2000     E  	call _Crom2Prom
 355  00D9  0080     E  	mov ra,a
 355  00DA  0700     E  	mov a,ra
 355  00DB  0E12        	and a,18
 355  00DC  0080     E  	mov rd,a
 355  00DD  1E00     E  	snz rd
 355  00DE  2800     R  	jmp _L27
 357  00DF              #line 357 "c:\users\user\documents\htk_project\qbell_master_mb_v1_2_f10\RF_API.c"
 357  00DF  3800     E  	snz ra.1
 357  00E0  2800     R  	jmp _L28
 358  00E1              #line 358 "c:\users\user\documents\htk_project\qbell_master_mb_v1_2_f10\RF_API.c"
 358  00E1  0F17        	mov a,23
 358  00E2  0300     E  	add a,rb
 358  00E3  0083        	mov mp,a
 358  00E4  0F00        	mov a,0
 358  00E5  1300     E  	adc a,rc
 358  00E6  0084        	mov sbp,a
 358  00E7  0F01        	mov a,1
 358  00E8  0082        	mov ir,a
 358  00E9              _L28:
 359  00E9              #line 359 "c:\users\user\documents\htk_project\qbell_master_mb_v1_2_f10\RF_API.c"
 359  00E9  0F10        	mov a,16
 359  00EA  2000     E  	call _SpiReadRegCMD
 359  00EB  0080     R  	mov _ExtendFIFO_RX_Process_2[2],a
 360  00EC              #line 360 "c:\users\user\documents\htk_project\qbell_master_mb_v1_2_f10\RF_API.c"
 360  00EC  0F2A        	mov a,42
 360  00ED  2000     E  	call _SpiReadRegCMD
 360  00EE  0080     E  	mov ra,a
 360  00EF  0F18        	mov a,24
 360  00F0  0300     R  	add a,_ExtendFIFO_RX_Process_2[0]
 360  00F1  0083        	mov mp,a
 360  00F2  0F00        	mov a,0
 360  00F3  1300     R  	adc a,_ExtendFIFO_RX_Process_2[1]
 360  00F4  0084        	mov sbp,a
 360  00F5  0700     E  	mov a,ra
 360  00F6  0082        	mov ir,a
 361  00F7              #line 361 "c:\users\user\documents\htk_project\qbell_master_mb_v1_2_f10\RF_API.c"
"File: RF_API.c      Assembler  Version HGASM0202      Page 14

 361  00F7  0700     R  	mov a,_ExtendFIFO_RX_Process_2[0]
 361  00F8  0080     E  	mov rb,a
 361  00F9  0700     R  	mov a,_ExtendFIFO_RX_Process_2[1]
 361  00FA  0080     E  	mov rc,a
 361  00FB  0F15        	mov a,21
 361  00FC  0300     E  	add a,rb
 361  00FD  0083        	mov mp,a
 361  00FE  0F00        	mov a,0
 361  00FF  1300     E  	adc a,rc
 361  0100  0084        	mov sbp,a
 361  0101  2000     E  	call _Crom2Prom
 361  0102  0080     E  	mov rd,a
 361  0103  2000     E  	call _Crom2PromNext
 361  0104  0080     E  	mov re,a
 361  0105  0F13        	mov a,19
 361  0106  0300     E  	add a,rb
 361  0107  0083        	mov mp,a
 361  0108  0F00        	mov a,0
 361  0109  1300     E  	adc a,rc
 361  010A  0084        	mov sbp,a
 361  010B  2000     E  	call _Crom2Prom
 361  010C  0080     E  	mov rb,a
 361  010D  2000     E  	call _Crom2PromNext
 361  010E  0080     E  	mov rc,a
 361  010F  0700     E  	mov a,rb
 361  0110  0300     E  	add a,rd
 361  0111  0080     E  	mov _RFReadBuf2_2[1],a
 361  0112  0700     E  	mov a,rc
 361  0113  1300     E  	adc a,re
 361  0114  0080     E  	mov _RFReadBuf2_2[2],a
 361  0115  0700     R  	mov a,_ExtendFIFO_RX_Process_2[2]
 361  0116  0080     E  	mov _RFReadBuf2_2[0],a
 361  0117  0F91        	mov a,145
 361  0118  2000     E  	call _RFReadBuf2
 362  0119              #line 362 "c:\users\user\documents\htk_project\qbell_master_mb_v1_2_f10\RF_API.c"
 362  0119  0F13        	mov a,19
 362  011A  0300     R  	add a,_ExtendFIFO_RX_Process_2[0]
 362  011B  0080     E  	mov rb,a
 362  011C  0F00        	mov a,0
 362  011D  1300     R  	adc a,_ExtendFIFO_RX_Process_2[1]
 362  011E  0080     E  	mov rc,a
 362  011F  0700     E  	mov a,rb
 362  0120  0083        	mov mp,a
 362  0121  0700     E  	mov a,rc
 362  0122  0084        	mov sbp,a
 362  0123  2000     E  	call _Crom2Prom
 362  0124  0080     E  	mov rd,a
 362  0125  2000     E  	call _Crom2PromNext
 362  0126  0080     E  	mov re,a
 362  0127  0700     R  	mov a,_ExtendFIFO_RX_Process_2[2]
 362  0128  0380     E  	addm a,rd
 362  0129  3C0A        	sz c
 362  012A  1480     E  	inc re
 362  012B  0700     E  	mov a,rb
 362  012C  0083        	mov mp,a
 362  012D  0700     E  	mov a,rc
 362  012E  0084        	mov sbp,a
 362  012F  0700     E  	mov a,rd
 362  0130  0082        	mov ir,a
 362  0131  1483        	inc mp
"File: RF_API.c      Assembler  Version HGASM0202      Page 15

 362  0132  0700     E  	mov a,re
 362  0133  0082        	mov ir,a
 363  0134              #line 363 "c:\users\user\documents\htk_project\qbell_master_mb_v1_2_f10\RF_API.c"
 363  0134  0F12        	mov a,18
 363  0135  0080     E  	mov _SpiWriteRegCMD_2[0],a
 363  0136  0F04        	mov a,4
 363  0137  2000     E  	call _SpiWriteRegCMD
 364  0138              #line 364 "c:\users\user\documents\htk_project\qbell_master_mb_v1_2_f10\RF_API.c"
 364  0138  0F0C        	mov a,12
 364  0139  2000     E  	call _SpiWriteStrobeCMD
 365  013A              #line 365 "c:\users\user\documents\htk_project\qbell_master_mb_v1_2_f10\RF_API.c"
 365  013A  0700     R  	mov a,_ExtendFIFO_RX_Process_2[0]
 365  013B  0083        	mov mp,a
 365  013C  0700     R  	mov a,_ExtendFIFO_RX_Process_2[1]
 365  013D  0084        	mov sbp,a
 365  013E  0F05        	mov a,5
 365  013F  0082        	mov ir,a
 366  0140              #line 366 "c:\users\user\documents\htk_project\qbell_master_mb_v1_2_f10\RF_API.c"
 366  0140  0F06        	mov a,6
 366  0141  0300     R  	add a,_ExtendFIFO_RX_Process_2[0]
 366  0142  0083        	mov mp,a
 366  0143  0F00        	mov a,0
 366  0144  1300     R  	adc a,_ExtendFIFO_RX_Process_2[1]
 366  0145  0084        	mov sbp,a
 366  0146  2000     E  	call _Crom2Prom
 366  0147  0080     R  	mov _ExtendFIFO_RX_Process_2[2],a
 366  0148  0700     R  	mov a,_ExtendFIFO_RX_Process_2[2]
 366  0149  0EED        	and a,237
 366  014A  0080     E  	mov ra,a
 366  014B  0700     E  	mov a,ra
 366  014C  0082        	mov ir,a
 367  014D              #line 367 "c:\users\user\documents\htk_project\qbell_master_mb_v1_2_f10\RF_API.c"
 367  014D  0F01        	mov a,1
 367  014E  0300     R  	add a,_ExtendFIFO_RX_Process_2[0]
 367  014F  0083        	mov mp,a
 367  0150  0F00        	mov a,0
 367  0151  1300     R  	adc a,_ExtendFIFO_RX_Process_2[1]
 367  0152  0084        	mov sbp,a
 367  0153  0F00        	mov a,0
 367  0154  0082        	mov ir,a
 367  0155              _L27:
 377  0155              #line 377 "c:\users\user\documents\htk_project\qbell_master_mb_v1_2_f10\RF_API.c"
 377  0155  0F06        	mov a,6
 377  0156  0300     R  	add a,_ExtendFIFO_RX_Process_2[0]
 377  0157  0083        	mov mp,a
 377  0158  0F00        	mov a,0
 377  0159  1300     R  	adc a,_ExtendFIFO_RX_Process_2[1]
 377  015A  0084        	mov sbp,a
 377  015B  2000     E  	call _Crom2Prom
 377  015C  0080     E  	mov ra,a
 377  015D  1E00     E  	snz ra
 377  015E  2800     R  	jmp _L21
 379  015F              #line 379 "c:\users\user\documents\htk_project\qbell_master_mb_v1_2_f10\RF_API.c"
 379  015F  0700     E  	mov a,ra
 379  0160  0080     E  	mov _SpiWriteRegCMD_2[0],a
 379  0161  0F04        	mov a,4
 379  0162  2000     E  	call _SpiWriteRegCMD
 380  0163              #line 380 "c:\users\user\documents\htk_project\qbell_master_mb_v1_2_f10\RF_API.c"
 380  0163  0F06        	mov a,6
 380  0164  0300     R  	add a,_ExtendFIFO_RX_Process_2[0]
"File: RF_API.c      Assembler  Version HGASM0202      Page 16

 380  0165  0083        	mov mp,a
 380  0166  0F00        	mov a,0
 380  0167  1300     R  	adc a,_ExtendFIFO_RX_Process_2[1]
 380  0168  0084        	mov sbp,a
 380  0169  0F00        	mov a,0
 380  016A  0082        	mov ir,a
 380  016B              _L21:
 380  016B  0003        	ret
 380  016C              _ExtendFIFO_RX_Process endp
 380  016C              #line 380 "c:\users\user\documents\htk_project\qbell_master_mb_v1_2_f10\RF_API.c"
 380  016C              #pragma debug scope 1 1
 380  016C              public _margin_len
 380  0000              @crom	.section 'crom'
  14  0000              #line 14 "c:\users\user\documents\htk_project\qbell_master_mb_v1_2_f10\RF_API.c"
  14  0000              @crom	.section	'crom'
  14  0000              _margin_len:
  14  0000              #pragma debug array 46 8 4 1
  14  0000              #pragma debug array 46 8 4 1
  14  0000              #pragma debug variable 46 1 _margin_len "margin_len"
  14  0000              	db 4
  14  0001              	db 8
  14  0001              	db 16
  14  0002              	db 32
  13  0002              #line 13 "c:\users\user\documents\htk_project\qbell_master_mb_v1_2_f10\RF_API.c"
  13  0002              public _syncword
  13  0000              @HCCINIT0_syncword .section 'data'
  13  0000  0004[       _syncword	db 4 dup(0)
            00
            ]
  13  0004              #pragma debug variable 46 1 _syncword "syncword"
  13  0004              
  13  0000              @HCCINIT .section 'data'
  12  0000              #line 12 "c:\users\user\documents\htk_project\qbell_master_mb_v1_2_f10\RF_API.c"
  12  0000              public _Resent_Count
  12  0000              @HCCINIT0_Resent_Count .section 'data'
  12  0000  0002[       _Resent_Count	db 2 dup(0)
            00
            ]
  12  0002              #pragma debug variable 12 1 _Resent_Count "Resent_Count"
  12  0002              
  12  0000              @HCCINIT .section 'data'
  10  0000              #line 10 "c:\users\user\documents\htk_project\qbell_master_mb_v1_2_f10\RF_API.c"
  10  0000              public _BC3602_T
  10  0000              @HCCINIT0_BC3602_T .section 'data'
  10  0000  0019[       _BC3602_T	db 25 dup(0)
            00
            ]
  10  0019              #pragma debug struct_end
  10  0019              #pragma debug struct_end
  10  0019              #pragma debug variable 47 1 _BC3602_T "BC3602_T"
  10  0019              
  10  0000              @HCCINIT .section 'data'
  10  0000              #pragma debug struct_end
  10  0000              #pragma debug struct_end
  10  0000              #pragma debug union_end
  10  0000              #pragma debug union_end
  10  0000              #pragma debug variable 49 1 ___pa "__pa" 1
  10  0000              
  10  0000              ; output external variables
  10  0000              extern _ExtRxLength:byte
"File: RF_API.c      Assembler  Version HGASM0202      Page 17

  10  0000              extern _ExtTxLength:byte
  10  0000              extern _RF_RXFIFO:byte
  10  0000              extern _RF_TXFIFO:byte
  10  0000              extern _SpiWriteStrobeCMD:near
  10  0000              extern _RFReadBuf2_2:byte
  10  0000              extern _RFReadBuf2:near
  10  0000              extern _SpiReadRegCMD:near
  10  0000              extern _Extend_FIFO_Enable:near
  10  0000              extern _SpiWriteRegCMD_2:byte
  10  0000              extern _SpiWriteRegCMD:near
  10  0000              extern _RFWriteBuf2_2:byte
  10  0000              extern _RFWriteBuf2:near
  10  0000              
  10  0000              ; 
  10  0000              ; Generated by holtek-gcc v3.19, Mon Oct 17 12:40:01 2022
  10  0000              ; Rebuild 718
  10  0000              ; end of file


        0 Errors, 0